Archive member included to satisfy reference by file (symbol)

d:/toolchain/gcc-arm-none-eabi/bin/../lib/gcc/arm-none-eabi/9.2.1/thumb/v7e-m+fp/hard\libgcc.a(_aeabi_ldivmod.o)
                              build/uart.o (__aeabi_ldivmod)
d:/toolchain/gcc-arm-none-eabi/bin/../lib/gcc/arm-none-eabi/9.2.1/thumb/v7e-m+fp/hard\libgcc.a(_aeabi_uldivmod.o)
                              build/uart.o (__aeabi_uldivmod)
d:/toolchain/gcc-arm-none-eabi/bin/../lib/gcc/arm-none-eabi/9.2.1/thumb/v7e-m+fp/hard\libgcc.a(_udivmoddi4.o)
                              d:/toolchain/gcc-arm-none-eabi/bin/../lib/gcc/arm-none-eabi/9.2.1/thumb/v7e-m+fp/hard\libgcc.a(_aeabi_ldivmod.o) (__udivmoddi4)
d:/toolchain/gcc-arm-none-eabi/bin/../lib/gcc/arm-none-eabi/9.2.1/thumb/v7e-m+fp/hard\libgcc.a(_dvmd_tls.o)
                              d:/toolchain/gcc-arm-none-eabi/bin/../lib/gcc/arm-none-eabi/9.2.1/thumb/v7e-m+fp/hard\libgcc.a(_aeabi_ldivmod.o) (__aeabi_ldiv0)
d:/toolchain/gcc-arm-none-eabi/bin/../lib/gcc/arm-none-eabi/9.2.1/../../../../arm-none-eabi/lib/thumb/v7e-m+fp/hard\libc_nano.a(lib_a-atoi.o)
                              build/cmd_parser.o (atoi)
d:/toolchain/gcc-arm-none-eabi/bin/../lib/gcc/arm-none-eabi/9.2.1/../../../../arm-none-eabi/lib/thumb/v7e-m+fp/hard\libc_nano.a(lib_a-ctype_.o)
                              build/cmd_parser.o (_ctype_)
d:/toolchain/gcc-arm-none-eabi/bin/../lib/gcc/arm-none-eabi/9.2.1/../../../../arm-none-eabi/lib/thumb/v7e-m+fp/hard\libc_nano.a(lib_a-exit.o)
                              d:/toolchain/gcc-arm-none-eabi/bin/../lib/gcc/arm-none-eabi/9.2.1/../../../../arm-none-eabi/lib/thumb/v7e-m+fp/hard/crt0.o (exit)
d:/toolchain/gcc-arm-none-eabi/bin/../lib/gcc/arm-none-eabi/9.2.1/../../../../arm-none-eabi/lib/thumb/v7e-m+fp/hard\libc_nano.a(lib_a-getchar.o)
                              build/cmd_line_buffer.o (getchar)
d:/toolchain/gcc-arm-none-eabi/bin/../lib/gcc/arm-none-eabi/9.2.1/../../../../arm-none-eabi/lib/thumb/v7e-m+fp/hard\libc_nano.a(lib_a-impure.o)
                              d:/toolchain/gcc-arm-none-eabi/bin/../lib/gcc/arm-none-eabi/9.2.1/../../../../arm-none-eabi/lib/thumb/v7e-m+fp/hard\libc_nano.a(lib_a-exit.o) (_global_impure_ptr)
d:/toolchain/gcc-arm-none-eabi/bin/../lib/gcc/arm-none-eabi/9.2.1/../../../../arm-none-eabi/lib/thumb/v7e-m+fp/hard\libc_nano.a(lib_a-init.o)
                              d:/toolchain/gcc-arm-none-eabi/bin/../lib/gcc/arm-none-eabi/9.2.1/../../../../arm-none-eabi/lib/thumb/v7e-m+fp/hard/crt0.o (__libc_init_array)
d:/toolchain/gcc-arm-none-eabi/bin/../lib/gcc/arm-none-eabi/9.2.1/../../../../arm-none-eabi/lib/thumb/v7e-m+fp/hard\libc_nano.a(lib_a-malloc.o)
                              build/FreeRTOS/heap_useNewlib.o (malloc)
d:/toolchain/gcc-arm-none-eabi/bin/../lib/gcc/arm-none-eabi/9.2.1/../../../../arm-none-eabi/lib/thumb/v7e-m+fp/hard\libc_nano.a(lib_a-memcpy-stub.o)
                              build/FreeRTOS/queue.o (memcpy)
d:/toolchain/gcc-arm-none-eabi/bin/../lib/gcc/arm-none-eabi/9.2.1/../../../../arm-none-eabi/lib/thumb/v7e-m+fp/hard\libc_nano.a(lib_a-memset.o)
                              d:/toolchain/gcc-arm-none-eabi/bin/../lib/gcc/arm-none-eabi/9.2.1/../../../../arm-none-eabi/lib/thumb/v7e-m+fp/hard/crt0.o (memset)
d:/toolchain/gcc-arm-none-eabi/bin/../lib/gcc/arm-none-eabi/9.2.1/../../../../arm-none-eabi/lib/thumb/v7e-m+fp/hard\libc_nano.a(lib_a-mstats.o)
                              build/FreeRTOS/heap_useNewlib.o (mallinfo)
d:/toolchain/gcc-arm-none-eabi/bin/../lib/gcc/arm-none-eabi/9.2.1/../../../../arm-none-eabi/lib/thumb/v7e-m+fp/hard\libc_nano.a(lib_a-nano-freer.o)
                              d:/toolchain/gcc-arm-none-eabi/bin/../lib/gcc/arm-none-eabi/9.2.1/../../../../arm-none-eabi/lib/thumb/v7e-m+fp/hard\libc_nano.a(lib_a-malloc.o) (_free_r)
d:/toolchain/gcc-arm-none-eabi/bin/../lib/gcc/arm-none-eabi/9.2.1/../../../../arm-none-eabi/lib/thumb/v7e-m+fp/hard\libc_nano.a(lib_a-nano-mallinfor.o)
                              d:/toolchain/gcc-arm-none-eabi/bin/../lib/gcc/arm-none-eabi/9.2.1/../../../../arm-none-eabi/lib/thumb/v7e-m+fp/hard\libc_nano.a(lib_a-mstats.o) (_mallinfo_r)
d:/toolchain/gcc-arm-none-eabi/bin/../lib/gcc/arm-none-eabi/9.2.1/../../../../arm-none-eabi/lib/thumb/v7e-m+fp/hard\libc_nano.a(lib_a-nano-mallocr.o)
                              d:/toolchain/gcc-arm-none-eabi/bin/../lib/gcc/arm-none-eabi/9.2.1/../../../../arm-none-eabi/lib/thumb/v7e-m+fp/hard\libc_nano.a(lib_a-malloc.o) (_malloc_r)
d:/toolchain/gcc-arm-none-eabi/bin/../lib/gcc/arm-none-eabi/9.2.1/../../../../arm-none-eabi/lib/thumb/v7e-m+fp/hard\libc_nano.a(lib_a-nano-malloptr.o)
                              d:/toolchain/gcc-arm-none-eabi/bin/../lib/gcc/arm-none-eabi/9.2.1/../../../../arm-none-eabi/lib/thumb/v7e-m+fp/hard\libc_nano.a(lib_a-mstats.o) (_mallopt_r)
d:/toolchain/gcc-arm-none-eabi/bin/../lib/gcc/arm-none-eabi/9.2.1/../../../../arm-none-eabi/lib/thumb/v7e-m+fp/hard\libc_nano.a(lib_a-nano-mallstatsr.o)
                              d:/toolchain/gcc-arm-none-eabi/bin/../lib/gcc/arm-none-eabi/9.2.1/../../../../arm-none-eabi/lib/thumb/v7e-m+fp/hard\libc_nano.a(lib_a-mstats.o) (_malloc_stats_r)
d:/toolchain/gcc-arm-none-eabi/bin/../lib/gcc/arm-none-eabi/9.2.1/../../../../arm-none-eabi/lib/thumb/v7e-m+fp/hard\libc_nano.a(lib_a-nano-vfprintf_float.o)
                              (_printf_float)
d:/toolchain/gcc-arm-none-eabi/bin/../lib/gcc/arm-none-eabi/9.2.1/../../../../arm-none-eabi/lib/thumb/v7e-m+fp/hard\libc_nano.a(lib_a-nano-vfprintf_i.o)
                              d:/toolchain/gcc-arm-none-eabi/bin/../lib/gcc/arm-none-eabi/9.2.1/../../../../arm-none-eabi/lib/thumb/v7e-m+fp/hard\libc_nano.a(lib_a-nano-vfprintf_float.o) (_printf_common)
d:/toolchain/gcc-arm-none-eabi/bin/../lib/gcc/arm-none-eabi/9.2.1/../../../../arm-none-eabi/lib/thumb/v7e-m+fp/hard\libc_nano.a(lib_a-nano-vfscanf_float.o)
                              (_scanf_float)
d:/toolchain/gcc-arm-none-eabi/bin/../lib/gcc/arm-none-eabi/9.2.1/../../../../arm-none-eabi/lib/thumb/v7e-m+fp/hard\libc_nano.a(lib_a-printf.o)
                              build/cmd_line_buffer.o (printf)
d:/toolchain/gcc-arm-none-eabi/bin/../lib/gcc/arm-none-eabi/9.2.1/../../../../arm-none-eabi/lib/thumb/v7e-m+fp/hard\libc_nano.a(lib_a-reent.o)
                              build/FreeRTOS/tasks.o (_reclaim_reent)
d:/toolchain/gcc-arm-none-eabi/bin/../lib/gcc/arm-none-eabi/9.2.1/../../../../arm-none-eabi/lib/thumb/v7e-m+fp/hard\libc_nano.a(lib_a-sbrkr.o)
                              d:/toolchain/gcc-arm-none-eabi/bin/../lib/gcc/arm-none-eabi/9.2.1/../../../../arm-none-eabi/lib/thumb/v7e-m+fp/hard\libc_nano.a(lib_a-nano-mallinfor.o) (_sbrk_r)
d:/toolchain/gcc-arm-none-eabi/bin/../lib/gcc/arm-none-eabi/9.2.1/../../../../arm-none-eabi/lib/thumb/v7e-m+fp/hard\libc_nano.a(lib_a-setvbuf.o)
                              build/uart.o (setvbuf)
d:/toolchain/gcc-arm-none-eabi/bin/../lib/gcc/arm-none-eabi/9.2.1/../../../../arm-none-eabi/lib/thumb/v7e-m+fp/hard\libc_nano.a(lib_a-sf_nan.o)
                              d:/toolchain/gcc-arm-none-eabi/bin/../lib/gcc/arm-none-eabi/9.2.1/../../../../arm-none-eabi/lib/thumb/v7e-m+fp/hard\libc_nano.a(lib_a-nano-vfscanf_float.o) (nanf)
d:/toolchain/gcc-arm-none-eabi/bin/../lib/gcc/arm-none-eabi/9.2.1/../../../../arm-none-eabi/lib/thumb/v7e-m+fp/hard\libc_nano.a(lib_a-sprintf.o)
                              d:/toolchain/gcc-arm-none-eabi/bin/../lib/gcc/arm-none-eabi/9.2.1/../../../../arm-none-eabi/lib/thumb/v7e-m+fp/hard\libc_nano.a(lib_a-nano-vfscanf_float.o) (sprintf)
d:/toolchain/gcc-arm-none-eabi/bin/../lib/gcc/arm-none-eabi/9.2.1/../../../../arm-none-eabi/lib/thumb/v7e-m+fp/hard\libc_nano.a(lib_a-strcmp.o)
                              build/cmd_parser.o (strcmp)
d:/toolchain/gcc-arm-none-eabi/bin/../lib/gcc/arm-none-eabi/9.2.1/../../../../arm-none-eabi/lib/thumb/v7e-m+fp/hard\libc_nano.a(lib_a-strlen.o)
                              d:/toolchain/gcc-arm-none-eabi/bin/../lib/gcc/arm-none-eabi/9.2.1/../../../../arm-none-eabi/lib/thumb/v7e-m+fp/hard\libc_nano.a(lib_a-nano-vfprintf_float.o) (strlen)
d:/toolchain/gcc-arm-none-eabi/bin/../lib/gcc/arm-none-eabi/9.2.1/../../../../arm-none-eabi/lib/thumb/v7e-m+fp/hard\libc_nano.a(lib_a-strtod.o)
                              d:/toolchain/gcc-arm-none-eabi/bin/../lib/gcc/arm-none-eabi/9.2.1/../../../../arm-none-eabi/lib/thumb/v7e-m+fp/hard\libc_nano.a(lib_a-nano-vfscanf_float.o) (_strtod_r)
d:/toolchain/gcc-arm-none-eabi/bin/../lib/gcc/arm-none-eabi/9.2.1/../../../../arm-none-eabi/lib/thumb/v7e-m+fp/hard\libc_nano.a(lib_a-strtol.o)
                              d:/toolchain/gcc-arm-none-eabi/bin/../lib/gcc/arm-none-eabi/9.2.1/../../../../arm-none-eabi/lib/thumb/v7e-m+fp/hard\libc_nano.a(lib_a-atoi.o) (_strtol_r)
d:/toolchain/gcc-arm-none-eabi/bin/../lib/gcc/arm-none-eabi/9.2.1/../../../../arm-none-eabi/lib/thumb/v7e-m+fp/hard\libc_nano.a(lib_a-vprintf.o)
                              build/uart.o (vprintf)
d:/toolchain/gcc-arm-none-eabi/bin/../lib/gcc/arm-none-eabi/9.2.1/../../../../arm-none-eabi/lib/thumb/v7e-m+fp/hard\libc_nano.a(lib_a-dtoa.o)
                              d:/toolchain/gcc-arm-none-eabi/bin/../lib/gcc/arm-none-eabi/9.2.1/../../../../arm-none-eabi/lib/thumb/v7e-m+fp/hard\libc_nano.a(lib_a-nano-vfprintf_float.o) (_dtoa_r)
d:/toolchain/gcc-arm-none-eabi/bin/../lib/gcc/arm-none-eabi/9.2.1/../../../../arm-none-eabi/lib/thumb/v7e-m+fp/hard\libc_nano.a(lib_a-fflush.o)
                              d:/toolchain/gcc-arm-none-eabi/bin/../lib/gcc/arm-none-eabi/9.2.1/../../../../arm-none-eabi/lib/thumb/v7e-m+fp/hard\libc_nano.a(lib_a-setvbuf.o) (_fflush_r)
d:/toolchain/gcc-arm-none-eabi/bin/../lib/gcc/arm-none-eabi/9.2.1/../../../../arm-none-eabi/lib/thumb/v7e-m+fp/hard\libc_nano.a(lib_a-findfp.o)
                              d:/toolchain/gcc-arm-none-eabi/bin/../lib/gcc/arm-none-eabi/9.2.1/../../../../arm-none-eabi/lib/thumb/v7e-m+fp/hard\libc_nano.a(lib_a-getchar.o) (__sinit)
d:/toolchain/gcc-arm-none-eabi/bin/../lib/gcc/arm-none-eabi/9.2.1/../../../../arm-none-eabi/lib/thumb/v7e-m+fp/hard\libc_nano.a(lib_a-fprintf.o)
                              d:/toolchain/gcc-arm-none-eabi/bin/../lib/gcc/arm-none-eabi/9.2.1/../../../../arm-none-eabi/lib/thumb/v7e-m+fp/hard\libc_nano.a(lib_a-mstats.o) (fiprintf)
d:/toolchain/gcc-arm-none-eabi/bin/../lib/gcc/arm-none-eabi/9.2.1/../../../../arm-none-eabi/lib/thumb/v7e-m+fp/hard\libc_nano.a(lib_a-fwalk.o)
                              d:/toolchain/gcc-arm-none-eabi/bin/../lib/gcc/arm-none-eabi/9.2.1/../../../../arm-none-eabi/lib/thumb/v7e-m+fp/hard\libc_nano.a(lib_a-findfp.o) (_fwalk)
d:/toolchain/gcc-arm-none-eabi/bin/../lib/gcc/arm-none-eabi/9.2.1/../../../../arm-none-eabi/lib/thumb/v7e-m+fp/hard\libc_nano.a(lib_a-gdtoa-gethex.o)
                              d:/toolchain/gcc-arm-none-eabi/bin/../lib/gcc/arm-none-eabi/9.2.1/../../../../arm-none-eabi/lib/thumb/v7e-m+fp/hard\libc_nano.a(lib_a-strtod.o) (__gethex)
d:/toolchain/gcc-arm-none-eabi/bin/../lib/gcc/arm-none-eabi/9.2.1/../../../../arm-none-eabi/lib/thumb/v7e-m+fp/hard\libc_nano.a(lib_a-gdtoa-hexnan.o)
                              d:/toolchain/gcc-arm-none-eabi/bin/../lib/gcc/arm-none-eabi/9.2.1/../../../../arm-none-eabi/lib/thumb/v7e-m+fp/hard\libc_nano.a(lib_a-strtod.o) (__match)
d:/toolchain/gcc-arm-none-eabi/bin/../lib/gcc/arm-none-eabi/9.2.1/../../../../arm-none-eabi/lib/thumb/v7e-m+fp/hard\libc_nano.a(lib_a-getc.o)
                              d:/toolchain/gcc-arm-none-eabi/bin/../lib/gcc/arm-none-eabi/9.2.1/../../../../arm-none-eabi/lib/thumb/v7e-m+fp/hard\libc_nano.a(lib_a-getchar.o) (_getc_r)
d:/toolchain/gcc-arm-none-eabi/bin/../lib/gcc/arm-none-eabi/9.2.1/../../../../arm-none-eabi/lib/thumb/v7e-m+fp/hard\libc_nano.a(lib_a-lnumeric.o)
                              d:/toolchain/gcc-arm-none-eabi/bin/../lib/gcc/arm-none-eabi/9.2.1/../../../../arm-none-eabi/lib/thumb/v7e-m+fp/hard\libc_nano.a(lib_a-strtod.o) (_C_numeric_locale)
d:/toolchain/gcc-arm-none-eabi/bin/../lib/gcc/arm-none-eabi/9.2.1/../../../../arm-none-eabi/lib/thumb/v7e-m+fp/hard\libc_nano.a(lib_a-locale.o)
                              d:/toolchain/gcc-arm-none-eabi/bin/../lib/gcc/arm-none-eabi/9.2.1/../../../../arm-none-eabi/lib/thumb/v7e-m+fp/hard\libc_nano.a(lib_a-strtod.o) (__global_locale)
d:/toolchain/gcc-arm-none-eabi/bin/../lib/gcc/arm-none-eabi/9.2.1/../../../../arm-none-eabi/lib/thumb/v7e-m+fp/hard\libc_nano.a(lib_a-localeconv.o)
                              d:/toolchain/gcc-arm-none-eabi/bin/../lib/gcc/arm-none-eabi/9.2.1/../../../../arm-none-eabi/lib/thumb/v7e-m+fp/hard\libc_nano.a(lib_a-nano-vfprintf_float.o) (_localeconv_r)
d:/toolchain/gcc-arm-none-eabi/bin/../lib/gcc/arm-none-eabi/9.2.1/../../../../arm-none-eabi/lib/thumb/v7e-m+fp/hard\libc_nano.a(lib_a-lock.o)
                              d:/toolchain/gcc-arm-none-eabi/bin/../lib/gcc/arm-none-eabi/9.2.1/../../../../arm-none-eabi/lib/thumb/v7e-m+fp/hard\libc_nano.a(lib_a-findfp.o) (__retarget_lock_init_recursive)
d:/toolchain/gcc-arm-none-eabi/bin/../lib/gcc/arm-none-eabi/9.2.1/../../../../arm-none-eabi/lib/thumb/v7e-m+fp/hard\libc_nano.a(lib_a-makebuf.o)
                              d:/toolchain/gcc-arm-none-eabi/bin/../lib/gcc/arm-none-eabi/9.2.1/../../../../arm-none-eabi/lib/thumb/v7e-m+fp/hard\libc_nano.a(lib_a-setvbuf.o) (__swhatbuf_r)
d:/toolchain/gcc-arm-none-eabi/bin/../lib/gcc/arm-none-eabi/9.2.1/../../../../arm-none-eabi/lib/thumb/v7e-m+fp/hard\libc_nano.a(lib_a-mbtowc_r.o)
                              d:/toolchain/gcc-arm-none-eabi/bin/../lib/gcc/arm-none-eabi/9.2.1/../../../../arm-none-eabi/lib/thumb/v7e-m+fp/hard\libc_nano.a(lib_a-locale.o) (__ascii_mbtowc)
d:/toolchain/gcc-arm-none-eabi/bin/../lib/gcc/arm-none-eabi/9.2.1/../../../../arm-none-eabi/lib/thumb/v7e-m+fp/hard\libc_nano.a(lib_a-memchr.o)
                              d:/toolchain/gcc-arm-none-eabi/bin/../lib/gcc/arm-none-eabi/9.2.1/../../../../arm-none-eabi/lib/thumb/v7e-m+fp/hard\libc_nano.a(lib_a-nano-vfprintf_i.o) (memchr)
d:/toolchain/gcc-arm-none-eabi/bin/../lib/gcc/arm-none-eabi/9.2.1/../../../../arm-none-eabi/lib/thumb/v7e-m+fp/hard\libc_nano.a(lib_a-mprec.o)
                              d:/toolchain/gcc-arm-none-eabi/bin/../lib/gcc/arm-none-eabi/9.2.1/../../../../arm-none-eabi/lib/thumb/v7e-m+fp/hard\libc_nano.a(lib_a-strtod.o) (_Balloc)
d:/toolchain/gcc-arm-none-eabi/bin/../lib/gcc/arm-none-eabi/9.2.1/../../../../arm-none-eabi/lib/thumb/v7e-m+fp/hard\libc_nano.a(lib_a-nano-callocr.o)
                              d:/toolchain/gcc-arm-none-eabi/bin/../lib/gcc/arm-none-eabi/9.2.1/../../../../arm-none-eabi/lib/thumb/v7e-m+fp/hard\libc_nano.a(lib_a-mprec.o) (_calloc_r)
d:/toolchain/gcc-arm-none-eabi/bin/../lib/gcc/arm-none-eabi/9.2.1/../../../../arm-none-eabi/lib/thumb/v7e-m+fp/hard\libc_nano.a(lib_a-nano-svfprintf.o)
                              d:/toolchain/gcc-arm-none-eabi/bin/../lib/gcc/arm-none-eabi/9.2.1/../../../../arm-none-eabi/lib/thumb/v7e-m+fp/hard\libc_nano.a(lib_a-sprintf.o) (_svfprintf_r)
d:/toolchain/gcc-arm-none-eabi/bin/../lib/gcc/arm-none-eabi/9.2.1/../../../../arm-none-eabi/lib/thumb/v7e-m+fp/hard\libc_nano.a(lib_a-nano-vfprintf.o)
                              d:/toolchain/gcc-arm-none-eabi/bin/../lib/gcc/arm-none-eabi/9.2.1/../../../../arm-none-eabi/lib/thumb/v7e-m+fp/hard\libc_nano.a(lib_a-printf.o) (_vfprintf_r)
d:/toolchain/gcc-arm-none-eabi/bin/../lib/gcc/arm-none-eabi/9.2.1/../../../../arm-none-eabi/lib/thumb/v7e-m+fp/hard\libc_nano.a(lib_a-rget.o)
                              d:/toolchain/gcc-arm-none-eabi/bin/../lib/gcc/arm-none-eabi/9.2.1/../../../../arm-none-eabi/lib/thumb/v7e-m+fp/hard\libc_nano.a(lib_a-getc.o) (__srget_r)
d:/toolchain/gcc-arm-none-eabi/bin/../lib/gcc/arm-none-eabi/9.2.1/../../../../arm-none-eabi/lib/thumb/v7e-m+fp/hard\libc_nano.a(lib_a-s_nan.o)
                              d:/toolchain/gcc-arm-none-eabi/bin/../lib/gcc/arm-none-eabi/9.2.1/../../../../arm-none-eabi/lib/thumb/v7e-m+fp/hard\libc_nano.a(lib_a-strtod.o) (nan)
d:/toolchain/gcc-arm-none-eabi/bin/../lib/gcc/arm-none-eabi/9.2.1/../../../../arm-none-eabi/lib/thumb/v7e-m+fp/hard\libc_nano.a(lib_a-stdio.o)
                              d:/toolchain/gcc-arm-none-eabi/bin/../lib/gcc/arm-none-eabi/9.2.1/../../../../arm-none-eabi/lib/thumb/v7e-m+fp/hard\libc_nano.a(lib_a-findfp.o) (__sread)
d:/toolchain/gcc-arm-none-eabi/bin/../lib/gcc/arm-none-eabi/9.2.1/../../../../arm-none-eabi/lib/thumb/v7e-m+fp/hard\libc_nano.a(lib_a-strncmp.o)
                              d:/toolchain/gcc-arm-none-eabi/bin/../lib/gcc/arm-none-eabi/9.2.1/../../../../arm-none-eabi/lib/thumb/v7e-m+fp/hard\libc_nano.a(lib_a-strtod.o) (strncmp)
d:/toolchain/gcc-arm-none-eabi/bin/../lib/gcc/arm-none-eabi/9.2.1/../../../../arm-none-eabi/lib/thumb/v7e-m+fp/hard\libc_nano.a(lib_a-wbuf.o)
                              d:/toolchain/gcc-arm-none-eabi/bin/../lib/gcc/arm-none-eabi/9.2.1/../../../../arm-none-eabi/lib/thumb/v7e-m+fp/hard\libc_nano.a(lib_a-nano-vfprintf.o) (__swbuf_r)
d:/toolchain/gcc-arm-none-eabi/bin/../lib/gcc/arm-none-eabi/9.2.1/../../../../arm-none-eabi/lib/thumb/v7e-m+fp/hard\libc_nano.a(lib_a-wctomb_r.o)
                              d:/toolchain/gcc-arm-none-eabi/bin/../lib/gcc/arm-none-eabi/9.2.1/../../../../arm-none-eabi/lib/thumb/v7e-m+fp/hard\libc_nano.a(lib_a-locale.o) (__ascii_wctomb)
d:/toolchain/gcc-arm-none-eabi/bin/../lib/gcc/arm-none-eabi/9.2.1/../../../../arm-none-eabi/lib/thumb/v7e-m+fp/hard\libc_nano.a(lib_a-writer.o)
                              d:/toolchain/gcc-arm-none-eabi/bin/../lib/gcc/arm-none-eabi/9.2.1/../../../../arm-none-eabi/lib/thumb/v7e-m+fp/hard\libc_nano.a(lib_a-stdio.o) (_write_r)
d:/toolchain/gcc-arm-none-eabi/bin/../lib/gcc/arm-none-eabi/9.2.1/../../../../arm-none-eabi/lib/thumb/v7e-m+fp/hard\libc_nano.a(lib_a-wsetup.o)
                              d:/toolchain/gcc-arm-none-eabi/bin/../lib/gcc/arm-none-eabi/9.2.1/../../../../arm-none-eabi/lib/thumb/v7e-m+fp/hard\libc_nano.a(lib_a-nano-vfprintf.o) (__swsetup_r)
d:/toolchain/gcc-arm-none-eabi/bin/../lib/gcc/arm-none-eabi/9.2.1/../../../../arm-none-eabi/lib/thumb/v7e-m+fp/hard\libc_nano.a(lib_a-closer.o)
                              d:/toolchain/gcc-arm-none-eabi/bin/../lib/gcc/arm-none-eabi/9.2.1/../../../../arm-none-eabi/lib/thumb/v7e-m+fp/hard\libc_nano.a(lib_a-stdio.o) (_close_r)
d:/toolchain/gcc-arm-none-eabi/bin/../lib/gcc/arm-none-eabi/9.2.1/../../../../arm-none-eabi/lib/thumb/v7e-m+fp/hard\libc_nano.a(lib_a-fstatr.o)
                              d:/toolchain/gcc-arm-none-eabi/bin/../lib/gcc/arm-none-eabi/9.2.1/../../../../arm-none-eabi/lib/thumb/v7e-m+fp/hard\libc_nano.a(lib_a-makebuf.o) (_fstat_r)
d:/toolchain/gcc-arm-none-eabi/bin/../lib/gcc/arm-none-eabi/9.2.1/../../../../arm-none-eabi/lib/thumb/v7e-m+fp/hard\libc_nano.a(lib_a-fvwrite.o)
                              d:/toolchain/gcc-arm-none-eabi/bin/../lib/gcc/arm-none-eabi/9.2.1/../../../../arm-none-eabi/lib/thumb/v7e-m+fp/hard\libc_nano.a(lib_a-nano-vfprintf.o) (__sfvwrite_r)
d:/toolchain/gcc-arm-none-eabi/bin/../lib/gcc/arm-none-eabi/9.2.1/../../../../arm-none-eabi/lib/thumb/v7e-m+fp/hard\libc_nano.a(lib_a-isattyr.o)
                              d:/toolchain/gcc-arm-none-eabi/bin/../lib/gcc/arm-none-eabi/9.2.1/../../../../arm-none-eabi/lib/thumb/v7e-m+fp/hard\libc_nano.a(lib_a-makebuf.o) (_isatty_r)
d:/toolchain/gcc-arm-none-eabi/bin/../lib/gcc/arm-none-eabi/9.2.1/../../../../arm-none-eabi/lib/thumb/v7e-m+fp/hard\libc_nano.a(lib_a-lseekr.o)
                              d:/toolchain/gcc-arm-none-eabi/bin/../lib/gcc/arm-none-eabi/9.2.1/../../../../arm-none-eabi/lib/thumb/v7e-m+fp/hard\libc_nano.a(lib_a-stdio.o) (_lseek_r)
d:/toolchain/gcc-arm-none-eabi/bin/../lib/gcc/arm-none-eabi/9.2.1/../../../../arm-none-eabi/lib/thumb/v7e-m+fp/hard\libc_nano.a(lib_a-memmove.o)
                              d:/toolchain/gcc-arm-none-eabi/bin/../lib/gcc/arm-none-eabi/9.2.1/../../../../arm-none-eabi/lib/thumb/v7e-m+fp/hard\libc_nano.a(lib_a-nano-svfprintf.o) (memmove)
d:/toolchain/gcc-arm-none-eabi/bin/../lib/gcc/arm-none-eabi/9.2.1/../../../../arm-none-eabi/lib/thumb/v7e-m+fp/hard\libc_nano.a(lib_a-nano-reallocr.o)
                              d:/toolchain/gcc-arm-none-eabi/bin/../lib/gcc/arm-none-eabi/9.2.1/../../../../arm-none-eabi/lib/thumb/v7e-m+fp/hard\libc_nano.a(lib_a-nano-svfprintf.o) (_realloc_r)
d:/toolchain/gcc-arm-none-eabi/bin/../lib/gcc/arm-none-eabi/9.2.1/../../../../arm-none-eabi/lib/thumb/v7e-m+fp/hard\libc_nano.a(lib_a-readr.o)
                              d:/toolchain/gcc-arm-none-eabi/bin/../lib/gcc/arm-none-eabi/9.2.1/../../../../arm-none-eabi/lib/thumb/v7e-m+fp/hard\libc_nano.a(lib_a-stdio.o) (_read_r)
d:/toolchain/gcc-arm-none-eabi/bin/../lib/gcc/arm-none-eabi/9.2.1/../../../../arm-none-eabi/lib/thumb/v7e-m+fp/hard\libc_nano.a(lib_a-refill.o)
                              d:/toolchain/gcc-arm-none-eabi/bin/../lib/gcc/arm-none-eabi/9.2.1/../../../../arm-none-eabi/lib/thumb/v7e-m+fp/hard\libc_nano.a(lib_a-rget.o) (__srefill_r)
d:/toolchain/gcc-arm-none-eabi/bin/../lib/gcc/arm-none-eabi/9.2.1/../../../../arm-none-eabi/lib/thumb/v7e-m+fp/hard\libc_nano.a(lib_a-nano-msizer.o)
                              d:/toolchain/gcc-arm-none-eabi/bin/../lib/gcc/arm-none-eabi/9.2.1/../../../../arm-none-eabi/lib/thumb/v7e-m+fp/hard\libc_nano.a(lib_a-nano-reallocr.o) (_malloc_usable_size_r)
d:/toolchain/gcc-arm-none-eabi/bin/../lib/gcc/arm-none-eabi/9.2.1/thumb/v7e-m+fp/hard\libgcc.a(_arm_muldf3.o)
                              d:/toolchain/gcc-arm-none-eabi/bin/../lib/gcc/arm-none-eabi/9.2.1/../../../../arm-none-eabi/lib/thumb/v7e-m+fp/hard\libc_nano.a(lib_a-strtod.o) (__aeabi_dmul)
d:/toolchain/gcc-arm-none-eabi/bin/../lib/gcc/arm-none-eabi/9.2.1/thumb/v7e-m+fp/hard\libgcc.a(_arm_addsubdf3.o)
                              d:/toolchain/gcc-arm-none-eabi/bin/../lib/gcc/arm-none-eabi/9.2.1/../../../../arm-none-eabi/lib/thumb/v7e-m+fp/hard\libc_nano.a(lib_a-strtod.o) (__aeabi_dsub)
d:/toolchain/gcc-arm-none-eabi/bin/../lib/gcc/arm-none-eabi/9.2.1/thumb/v7e-m+fp/hard\libgcc.a(_arm_muldivdf3.o)
                              d:/toolchain/gcc-arm-none-eabi/bin/../lib/gcc/arm-none-eabi/9.2.1/../../../../arm-none-eabi/lib/thumb/v7e-m+fp/hard\libc_nano.a(lib_a-strtod.o) (__aeabi_ddiv)
d:/toolchain/gcc-arm-none-eabi/bin/../lib/gcc/arm-none-eabi/9.2.1/thumb/v7e-m+fp/hard\libgcc.a(_arm_cmpdf2.o)
                              d:/toolchain/gcc-arm-none-eabi/bin/../lib/gcc/arm-none-eabi/9.2.1/../../../../arm-none-eabi/lib/thumb/v7e-m+fp/hard\libc_nano.a(lib_a-nano-vfprintf_float.o) (__aeabi_dcmpeq)
d:/toolchain/gcc-arm-none-eabi/bin/../lib/gcc/arm-none-eabi/9.2.1/thumb/v7e-m+fp/hard\libgcc.a(_arm_unorddf2.o)
                              d:/toolchain/gcc-arm-none-eabi/bin/../lib/gcc/arm-none-eabi/9.2.1/../../../../arm-none-eabi/lib/thumb/v7e-m+fp/hard\libc_nano.a(lib_a-nano-vfprintf_float.o) (__aeabi_dcmpun)
d:/toolchain/gcc-arm-none-eabi/bin/../lib/gcc/arm-none-eabi/9.2.1/thumb/v7e-m+fp/hard\libgcc.a(_arm_fixdfsi.o)
                              d:/toolchain/gcc-arm-none-eabi/bin/../lib/gcc/arm-none-eabi/9.2.1/../../../../arm-none-eabi/lib/thumb/v7e-m+fp/hard\libc_nano.a(lib_a-dtoa.o) (__aeabi_d2iz)
d:/toolchain/gcc-arm-none-eabi/bin/../lib/gcc/arm-none-eabi/9.2.1/thumb/v7e-m+fp/hard\libgcc.a(_arm_fixunsdfsi.o)
                              d:/toolchain/gcc-arm-none-eabi/bin/../lib/gcc/arm-none-eabi/9.2.1/../../../../arm-none-eabi/lib/thumb/v7e-m+fp/hard\libc_nano.a(lib_a-strtod.o) (__aeabi_d2uiz)
d:/toolchain/gcc-arm-none-eabi/bin/../lib/gcc/arm-none-eabi/9.2.1/thumb/v7e-m+fp/hard\libgcc.a(_arm_truncdfsf2.o)
                              d:/toolchain/gcc-arm-none-eabi/bin/../lib/gcc/arm-none-eabi/9.2.1/../../../../arm-none-eabi/lib/thumb/v7e-m+fp/hard\libc_nano.a(lib_a-nano-vfscanf_float.o) (__aeabi_d2f)
d:/toolchain/gcc-arm-none-eabi/bin/../lib/gcc/arm-none-eabi/9.2.1/thumb/v7e-m+fp/hard\libgcc.a(_fixdfdi.o)
                              d:/toolchain/gcc-arm-none-eabi/bin/../lib/gcc/arm-none-eabi/9.2.1/../../../../arm-none-eabi/lib/thumb/v7e-m+fp/hard\libc_nano.a(lib_a-strtod.o) (__aeabi_d2lz)
d:/toolchain/gcc-arm-none-eabi/bin/../lib/gcc/arm-none-eabi/9.2.1/thumb/v7e-m+fp/hard\libgcc.a(_fixunsdfdi.o)
                              d:/toolchain/gcc-arm-none-eabi/bin/../lib/gcc/arm-none-eabi/9.2.1/thumb/v7e-m+fp/hard\libgcc.a(_fixdfdi.o) (__aeabi_d2ulz)
d:/toolchain/gcc-arm-none-eabi/bin/../lib/gcc/arm-none-eabi/9.2.1/../../../../arm-none-eabi/lib/thumb/v7e-m+fp/hard\libnosys.a(close.o)
                              d:/toolchain/gcc-arm-none-eabi/bin/../lib/gcc/arm-none-eabi/9.2.1/../../../../arm-none-eabi/lib/thumb/v7e-m+fp/hard\libc_nano.a(lib_a-closer.o) (_close)
d:/toolchain/gcc-arm-none-eabi/bin/../lib/gcc/arm-none-eabi/9.2.1/../../../../arm-none-eabi/lib/thumb/v7e-m+fp/hard\libnosys.a(fstat.o)
                              d:/toolchain/gcc-arm-none-eabi/bin/../lib/gcc/arm-none-eabi/9.2.1/../../../../arm-none-eabi/lib/thumb/v7e-m+fp/hard\libc_nano.a(lib_a-fstatr.o) (_fstat)
d:/toolchain/gcc-arm-none-eabi/bin/../lib/gcc/arm-none-eabi/9.2.1/../../../../arm-none-eabi/lib/thumb/v7e-m+fp/hard\libnosys.a(isatty.o)
                              d:/toolchain/gcc-arm-none-eabi/bin/../lib/gcc/arm-none-eabi/9.2.1/../../../../arm-none-eabi/lib/thumb/v7e-m+fp/hard\libc_nano.a(lib_a-isattyr.o) (_isatty)
d:/toolchain/gcc-arm-none-eabi/bin/../lib/gcc/arm-none-eabi/9.2.1/../../../../arm-none-eabi/lib/thumb/v7e-m+fp/hard\libnosys.a(lseek.o)
                              d:/toolchain/gcc-arm-none-eabi/bin/../lib/gcc/arm-none-eabi/9.2.1/../../../../arm-none-eabi/lib/thumb/v7e-m+fp/hard\libc_nano.a(lib_a-lseekr.o) (_lseek)
d:/toolchain/gcc-arm-none-eabi/bin/../lib/gcc/arm-none-eabi/9.2.1/../../../../arm-none-eabi/lib/thumb/v7e-m+fp/hard\libnosys.a(_exit.o)
                              d:/toolchain/gcc-arm-none-eabi/bin/../lib/gcc/arm-none-eabi/9.2.1/../../../../arm-none-eabi/lib/thumb/v7e-m+fp/hard\libc_nano.a(lib_a-exit.o) (_exit)

Allocating common symbols
Common symbol       size              file

__lock___atexit_recursive_mutex
                    0x1               d:/toolchain/gcc-arm-none-eabi/bin/../lib/gcc/arm-none-eabi/9.2.1/../../../../arm-none-eabi/lib/thumb/v7e-m+fp/hard\libc_nano.a(lib_a-lock.o)
__lock___arc4random_mutex
                    0x1               d:/toolchain/gcc-arm-none-eabi/bin/../lib/gcc/arm-none-eabi/9.2.1/../../../../arm-none-eabi/lib/thumb/v7e-m+fp/hard\libc_nano.a(lib_a-lock.o)
errno               0x4               d:/toolchain/gcc-arm-none-eabi/bin/../lib/gcc/arm-none-eabi/9.2.1/../../../../arm-none-eabi/lib/thumb/v7e-m+fp/hard\libc_nano.a(lib_a-reent.o)
uwTick              0x4               build/stm32f4_HAL/stm32f4xx_hal.o
__lock___env_recursive_mutex
                    0x1               d:/toolchain/gcc-arm-none-eabi/bin/../lib/gcc/arm-none-eabi/9.2.1/../../../../arm-none-eabi/lib/thumb/v7e-m+fp/hard\libc_nano.a(lib_a-lock.o)
__lock___sinit_recursive_mutex
                    0x1               d:/toolchain/gcc-arm-none-eabi/bin/../lib/gcc/arm-none-eabi/9.2.1/../../../../arm-none-eabi/lib/thumb/v7e-m+fp/hard\libc_nano.a(lib_a-lock.o)
__lock___malloc_recursive_mutex
                    0x1               d:/toolchain/gcc-arm-none-eabi/bin/../lib/gcc/arm-none-eabi/9.2.1/../../../../arm-none-eabi/lib/thumb/v7e-m+fp/hard\libc_nano.a(lib_a-lock.o)
__lock___at_quick_exit_mutex
                    0x1               d:/toolchain/gcc-arm-none-eabi/bin/../lib/gcc/arm-none-eabi/9.2.1/../../../../arm-none-eabi/lib/thumb/v7e-m+fp/hard\libc_nano.a(lib_a-lock.o)
__lock___dd_hash_mutex
                    0x1               d:/toolchain/gcc-arm-none-eabi/bin/../lib/gcc/arm-none-eabi/9.2.1/../../../../arm-none-eabi/lib/thumb/v7e-m+fp/hard\libc_nano.a(lib_a-lock.o)
__lock___tz_mutex   0x1               d:/toolchain/gcc-arm-none-eabi/bin/../lib/gcc/arm-none-eabi/9.2.1/../../../../arm-none-eabi/lib/thumb/v7e-m+fp/hard\libc_nano.a(lib_a-lock.o)
__lock___sfp_recursive_mutex
                    0x1               d:/toolchain/gcc-arm-none-eabi/bin/../lib/gcc/arm-none-eabi/9.2.1/../../../../arm-none-eabi/lib/thumb/v7e-m+fp/hard\libc_nano.a(lib_a-lock.o)

Memory Configuration

Name             Origin             Length             Attributes
FLASH            0x08000000         0x00080000         xr
RAM              0x20000000         0x00020000         xrw
*default*        0x00000000         0xffffffff

Linker script and memory map

LOAD d:/toolchain/gcc-arm-none-eabi/bin/../lib/gcc/arm-none-eabi/9.2.1/thumb/v7e-m+fp/hard/crti.o
LOAD d:/toolchain/gcc-arm-none-eabi/bin/../lib/gcc/arm-none-eabi/9.2.1/thumb/v7e-m+fp/hard/crtbegin.o
LOAD d:/toolchain/gcc-arm-none-eabi/bin/../lib/gcc/arm-none-eabi/9.2.1/../../../../arm-none-eabi/lib/thumb/v7e-m+fp/hard/crt0.o
LOAD build/cmd_line_buffer.o
LOAD build/cmd_parser.o
LOAD build/light.o
LOAD build/potentiometer.o
LOAD build/led_rgb.o
LOAD build/button.o
LOAD build/dimmer_task.o
LOAD build/heartbeat_task.o
LOAD build/stm32f4xx_hal_msp.o
LOAD build/main.o
LOAD build/stm32f4xx_it.o
LOAD build/system_stm32f4xx.o
LOAD build/uart.o
LOAD build/cmd_task.o
LOAD build/startup_stm32f446xx.o
LOAD build/stm32f4_HAL/stm32f4xx_hal.o
LOAD build/stm32f4_HAL/stm32f4xx_hal_dma.o
LOAD build/stm32f4_HAL/stm32f4xx_hal_adc.o
LOAD build/stm32f4_HAL/stm32f4xx_hal_adc_ex.o
LOAD build/stm32f4_HAL/stm32f4xx_hal_gpio.o
LOAD build/stm32f4_HAL/stm32f4xx_ll_gpio.o
LOAD build/stm32f4_HAL/stm32f4xx_ll_usart.o
LOAD build/stm32f4_HAL/stm32f4xx_ll_dma.o
LOAD build/stm32f4_HAL/stm32f4xx_ll_rcc.o
LOAD build/stm32f4_HAL/stm32f4xx_hal_i2c.o
LOAD build/stm32f4_HAL/stm32f4xx_hal_i2c_ex.o
LOAD build/stm32f4_HAL/stm32f4xx_hal_tim.o
LOAD build/stm32f4_HAL/stm32f4xx_hal_tim_ex.o
LOAD build/stm32f4_HAL/stm32f4xx_hal_rtc.o
LOAD build/stm32f4_HAL/stm32f4xx_hal_rcc.o
LOAD build/stm32f4_HAL/stm32f4xx_hal_rcc_ex.o
LOAD build/stm32f4_HAL/stm32f4xx_hal_pwr.o
LOAD build/stm32f4_HAL/stm32f4xx_hal_pwr_ex.o
LOAD build/stm32f4_HAL/stm32f4xx_hal_cortex.o
LOAD build/stm32f4_HAL/stm32f4xx_hal_spi.o
LOAD build/FreeRTOS/croutine.o
LOAD build/FreeRTOS/event_groups.o
LOAD build/FreeRTOS/list.o
LOAD build/FreeRTOS/queue.o
LOAD build/FreeRTOS/tasks.o
LOAD build/FreeRTOS/timers.o
LOAD build/FreeRTOS/stream_buffer.o
LOAD build/FreeRTOS/cmsis_os2.o
LOAD build/FreeRTOS/clib_arm.o
LOAD build/FreeRTOS/os_systick.o
LOAD build/FreeRTOS/heap_useNewlib.o
LOAD build/FreeRTOS/port.o
LOAD d:/toolchain/gcc-arm-none-eabi/bin/../lib/gcc/arm-none-eabi/9.2.1/../../../../arm-none-eabi/lib/thumb/v7e-m+fp/hard\libm.a
LOAD D:/libraries/STM32Cube_F4_FW/Drivers/CMSIS/Lib/GCC/libarm_cortexM4lf_math.a
START GROUP
LOAD d:/toolchain/gcc-arm-none-eabi/bin/../lib/gcc/arm-none-eabi/9.2.1/thumb/v7e-m+fp/hard\libgcc.a
LOAD d:/toolchain/gcc-arm-none-eabi/bin/../lib/gcc/arm-none-eabi/9.2.1/../../../../arm-none-eabi/lib/thumb/v7e-m+fp/hard\libc_nano.a
END GROUP
START GROUP
LOAD d:/toolchain/gcc-arm-none-eabi/bin/../lib/gcc/arm-none-eabi/9.2.1/thumb/v7e-m+fp/hard\libgcc.a
LOAD d:/toolchain/gcc-arm-none-eabi/bin/../lib/gcc/arm-none-eabi/9.2.1/../../../../arm-none-eabi/lib/thumb/v7e-m+fp/hard\libc_nano.a
LOAD d:/toolchain/gcc-arm-none-eabi/bin/../lib/gcc/arm-none-eabi/9.2.1/../../../../arm-none-eabi/lib/thumb/v7e-m+fp/hard\libnosys.a
END GROUP
START GROUP
LOAD d:/toolchain/gcc-arm-none-eabi/bin/../lib/gcc/arm-none-eabi/9.2.1/thumb/v7e-m+fp/hard\libgcc.a
LOAD d:/toolchain/gcc-arm-none-eabi/bin/../lib/gcc/arm-none-eabi/9.2.1/../../../../arm-none-eabi/lib/thumb/v7e-m+fp/hard\libc_nano.a
LOAD d:/toolchain/gcc-arm-none-eabi/bin/../lib/gcc/arm-none-eabi/9.2.1/../../../../arm-none-eabi/lib/thumb/v7e-m+fp/hard\libnosys.a
END GROUP
LOAD d:/toolchain/gcc-arm-none-eabi/bin/../lib/gcc/arm-none-eabi/9.2.1/thumb/v7e-m+fp/hard/crtend.o
LOAD d:/toolchain/gcc-arm-none-eabi/bin/../lib/gcc/arm-none-eabi/9.2.1/thumb/v7e-m+fp/hard/crtn.o
                0x20020000                _estack = 0x20020000
                0x00008000                _Min_Heap_Size = 0x8000
                0x00002000                _Min_Stack_Size = 0x2000

.isr_vector     0x08000000      0x1c4
                0x08000000                . = ALIGN (0x4)
 *(.isr_vector)
 .isr_vector    0x08000000      0x1c4 build/startup_stm32f446xx.o
                0x08000000                g_pfnVectors
                0x080001c4                . = ALIGN (0x4)

.text           0x080001d0    0x169ac
                0x080001d0                . = ALIGN (0x4)
 *(.text)
 .text          0x080001d0        0x0 d:/toolchain/gcc-arm-none-eabi/bin/../lib/gcc/arm-none-eabi/9.2.1/thumb/v7e-m+fp/hard/crti.o
 .text          0x080001d0       0x40 d:/toolchain/gcc-arm-none-eabi/bin/../lib/gcc/arm-none-eabi/9.2.1/thumb/v7e-m+fp/hard/crtbegin.o
 .text          0x08000210       0x74 d:/toolchain/gcc-arm-none-eabi/bin/../lib/gcc/arm-none-eabi/9.2.1/../../../../arm-none-eabi/lib/thumb/v7e-m+fp/hard/crt0.o
                0x08000210                _start
                0x08000210                _mainCRTStartup
 .text          0x08000284      0x104 build/cmd_line_buffer.o
                0x08000284                clb_init
                0x0800028e                clb_is_empty
                0x08000298                clb_is_full
                0x080002a6                clb_delc
                0x080002b0                clb_is_cmd_ready
                0x080002c8                clb_putc
                0x080002e8                clb_consume_char
                0x08000310                clb_consume_str
                0x0800032a                clb_gets_at
                0x08000342                clb_gets
                0x08000348                clb_process
 .text          0x08000388      0x2f0 build/cmd_parser.o
                0x080005c8                cmd_parse
 .text          0x08000678      0x140 build/light.o
                0x0800070c                light_init
                0x08000724                light_set_brightness
                0x08000730                light_get_brightness
                0x0800073c                light_set_saturation
                0x08000748                light_get_saturation
                0x08000754                light_set_hue
                0x0800076c                light_incr_hue
                0x08000788                light_get_hue
                0x08000794                light_get_red
                0x080007a0                light_get_green
                0x080007ac                light_get_blue
 .text          0x080007b8       0x6c build/potentiometer.o
                0x080007b8                pot_init
                0x080007fc                pot_deinit
                0x08000808                pot_get_value
 .text          0x08000824       0xe0 build/led_rgb.o
                0x08000824                led_rgb_init
                0x080008a4                led_rgb_deinit
                0x080008b0                led_rgb_get_red
                0x080008c0                led_rgb_get_green
                0x080008d0                led_rgb_get_blue
                0x080008e0                led_rgb_set_red
                0x080008ec                led_rgb_set_green
                0x080008f8                led_rgb_set_blue
 .text          0x08000904       0xc4 build/button.o
                0x08000904                button_init
                0x08000964                _button_thread_func
                0x08000966                button_debounce
                0x08000968                button_clear_pressed
                0x08000974                button_get_pressed
                0x08000980                button_set_pressed
                0x0800098c                button_pop_pressed
                0x0800099c                button_isr
                0x080009a8                EXTI9_5_IRQHandler
                0x080009b8                button_deinit
 .text          0x080009c8       0x50 build/dimmer_task.o
                0x080009c8                dimmer_task_init
                0x080009dc                dimmer_task_resume
                0x080009ec                dimmer_task_stop
                0x080009fc                dimmer_task_is_running
                0x08000a08                dimmer_task_deinit
 .text          0x08000a18       0xf8 build/heartbeat_task.o
                0x08000a48                heartbeat_task_start
                0x08000a68                heartbeat_task_init
                0x08000ad4                heartbeat_task_stop
                0x08000af0                heartbeat_task_is_running
                0x08000afc                heartbeat_task_deinit
 .text          0x08000b10      0x110 build/stm32f4xx_hal_msp.o
                0x08000b10                HAL_TIM_PWM_MspInit
                0x08000bc4                HAL_ADC_MspInit
 .text          0x08000c20        0x0 build/main.o
 .text          0x08000c20        0xc build/stm32f4xx_it.o
                0x08000c20                NMI_Handler
                0x08000c22                HardFault_Handler
                0x08000c24                MemManage_Handler
                0x08000c26                BusFault_Handler
                0x08000c28                UsageFault_Handler
                0x08000c2a                DebugMon_Handler
 .text          0x08000c2c       0xc0 build/system_stm32f4xx.o
                0x08000c2c                SystemInit
                0x08000c78                SystemCoreClockUpdate
 .text          0x08000cec      0x47c build/uart.o
                0x08000cec                uart_init
                0x08000fc0                __wrap_printf
                0x08000ff8                __io_putchar
                0x08001028                __io_getchar
                0x08001044                _write
                0x08001060                _read
                0x08001074                _uart_rxne_isr
                0x0800109c                _uart_txe_isr
                0x080010d4                _uart_error
                0x0800112c                USART2_IRQHandler
 .text          0x08001168       0x4c build/cmd_task.o
                0x08001188                cmd_task_init
 .text          0x080011b4       0x14 build/startup_stm32f446xx.o
 .text          0x080011c8      0x20c build/stm32f4_HAL/stm32f4xx_hal.o
                0x080011c8                HAL_MspInit
                0x080011ca                HAL_MspDeInit
                0x080011cc                HAL_DeInit
                0x080011f8                HAL_InitTick
                0x0800123c                HAL_Init
                0x08001270                HAL_IncTick
                0x08001288                HAL_GetTick
                0x08001294                HAL_GetTickPrio
                0x080012a0                HAL_SetTickFreq
                0x080012c0                HAL_GetTickFreq
                0x080012cc                HAL_Delay
                0x080012f4                HAL_SuspendTick
                0x08001304                HAL_ResumeTick
                0x08001314                HAL_GetHalVersion
                0x0800131c                HAL_GetREVID
                0x08001328                HAL_GetDEVID
                0x08001338                HAL_DBGMCU_EnableDBGSleepMode
                0x08001348                HAL_DBGMCU_DisableDBGSleepMode
                0x08001358                HAL_DBGMCU_EnableDBGStopMode
                0x08001368                HAL_DBGMCU_DisableDBGStopMode
                0x08001378                HAL_DBGMCU_EnableDBGStandbyMode
                0x08001388                HAL_DBGMCU_DisableDBGStandbyMode
                0x08001398                HAL_EnableCompensationCell
                0x080013a4                HAL_DisableCompensationCell
                0x080013b0                HAL_GetUIDw0
                0x080013bc                HAL_GetUIDw1
                0x080013c8                HAL_GetUIDw2
 .text          0x080013d4      0x630 build/stm32f4_HAL/stm32f4xx_hal_dma.o
                0x08001400                HAL_DMA_Init
                0x08001500                HAL_DMA_DeInit
                0x08001554                HAL_DMA_Start
                0x080015a8                HAL_DMA_Start_IT
                0x0800161c                HAL_DMA_Abort
                0x080016a4                HAL_DMA_Abort_IT
                0x080016c8                HAL_DMA_PollForTransfer
                0x080017d6                HAL_DMA_IRQHandler
                0x08001950                HAL_DMA_RegisterCallback
                0x08001998                HAL_DMA_UnRegisterCallback
                0x080019fa                HAL_DMA_GetState
                0x08001a00                HAL_DMA_GetError
 .text          0x08001a04      0x9c8 build/stm32f4_HAL/stm32f4xx_hal_adc.o
                0x08001a06                HAL_ADC_Init
                0x08001b54                HAL_ADC_MspDeInit
                0x08001b56                HAL_ADC_DeInit
                0x08001b8a                HAL_ADC_Start
                0x08001c74                HAL_ADC_Stop
                0x08001caa                HAL_ADC_PollForConversion
                0x08001d48                HAL_ADC_PollForEvent
                0x08001dae                HAL_ADC_Start_IT
                0x08001ea4                HAL_ADC_Stop_IT
                0x08001eec                HAL_ADC_Start_DMA
                0x08002010                HAL_ADC_Stop_DMA
                0x0800206a                HAL_ADC_GetValue
                0x08002070                HAL_ADC_ConvCpltCallback
                0x08002072                HAL_ADC_ConvHalfCpltCallback
                0x0800207e                HAL_ADC_LevelOutOfWindowCallback
                0x08002080                HAL_ADC_ErrorCallback
                0x08002082                HAL_ADC_IRQHandler
                0x0800222c                HAL_ADC_ConfigChannel
                0x08002364                HAL_ADC_AnalogWDGConfig
                0x080023c4                HAL_ADC_GetState
                0x080023c8                HAL_ADC_GetError
 .text          0x080023cc      0x6b0 build/stm32f4_HAL/stm32f4xx_hal_adc_ex.o
                0x0800243c                HAL_ADCEx_InjectedStart
                0x080024f0                HAL_ADCEx_InjectedStart_IT
                0x080025ac                HAL_ADCEx_InjectedStop
                0x08002606                HAL_ADCEx_InjectedPollForConversion
                0x0800268e                HAL_ADCEx_InjectedStop_IT
                0x080026f0                HAL_ADCEx_InjectedGetValue
                0x08002722                HAL_ADCEx_MultiModeStart_DMA
                0x0800281c                HAL_ADCEx_MultiModeStop_DMA
                0x0800287c                HAL_ADCEx_MultiModeGetValue
                0x08002888                HAL_ADCEx_InjectedConvCpltCallback
                0x0800288a                HAL_ADCEx_InjectedConfigChannel
                0x08002a2c                HAL_ADCEx_MultiModeConfigChannel
 .text          0x08002a7c      0x344 build/stm32f4_HAL/stm32f4xx_hal_gpio.o
                0x08002a7c                HAL_GPIO_Init
                0x08002c3c                HAL_GPIO_DeInit
                0x08002d58                HAL_GPIO_ReadPin
                0x08002d64                HAL_GPIO_WritePin
                0x08002d6e                HAL_GPIO_TogglePin
                0x08002d7c                HAL_GPIO_LockPin
                0x08002da6                HAL_GPIO_EXTI_Callback
                0x08002da8                HAL_GPIO_EXTI_IRQHandler
 .text          0x08002dc0      0x220 build/stm32f4_HAL/stm32f4xx_ll_gpio.o
                0x08002de0                LL_GPIO_DeInit
                0x08002e8c                LL_GPIO_Init
                0x08002fc8                LL_GPIO_StructInit
 .text          0x08002fe0      0x21c build/stm32f4_HAL/stm32f4xx_ll_usart.o
                0x08002fe0                LL_USART_DeInit
                0x080030a0                LL_USART_Init
                0x0800319c                LL_USART_StructInit
                0x080031b4                LL_USART_ClockInit
                0x080031ee                LL_USART_ClockStructInit
 .text          0x080031fc      0x238 build/stm32f4_HAL/stm32f4xx_ll_dma.o
                0x080031fc                LL_DMA_DeInit
                0x0800338c                LL_DMA_Init
                0x08003410                LL_DMA_StructInit
 .text          0x08003434      0x604 build/stm32f4_HAL/stm32f4xx_ll_rcc.o
                0x08003444                LL_RCC_DeInit
                0x080034f4                LL_RCC_GetCECClockFreq
                0x08003524                RCC_GetHCLKClockFreq
                0x0800353c                RCC_GetPCLK1ClockFreq
                0x08003554                RCC_GetPCLK2ClockFreq
                0x0800356c                RCC_PLL_GetFreqDomain_SYS
                0x080035b4                RCC_GetSystemClockFreq
                0x080035e4                LL_RCC_GetSystemClocksFreq
                0x08003604                LL_RCC_GetFMPI2CClockFreq
                0x08003654                RCC_PLL_GetFreqDomain_48M
                0x08003690                RCC_PLL_GetFreqDomain_I2S
                0x080036cc                RCC_PLL_GetFreqDomain_SPDIFRX
                0x080036d0                RCC_PLL_GetFreqDomain_SAI
                0x080036d4                RCC_PLLSAI_GetFreqDomain_SAI
                0x08003724                RCC_PLLSAI_GetFreqDomain_48M
                0x08003768                LL_RCC_GetSDIOClockFreq
                0x080037b0                LL_RCC_GetUSBClockFreq
                0x080037e4                RCC_PLLI2S_GetFreqDomain_SAI
                0x08003834                LL_RCC_GetSAIClockFreq
                0x080038e8                RCC_PLLI2S_GetFreqDomain_SPDIFRX
                0x0800392c                LL_RCC_GetSPDIFRXClockFreq
                0x08003960                RCC_PLLI2S_GetFreqDomain_I2S
                0x080039a0                LL_RCC_GetI2SClockFreq
 .text          0x08003a38     0x31e0 build/stm32f4_HAL/stm32f4xx_hal_i2c.o
                0x08003e5c                HAL_I2C_MspInit
                0x08003e5e                HAL_I2C_Init
                0x08003fac                HAL_I2C_MspDeInit
                0x08003fae                HAL_I2C_DeInit
                0x08003fe0                HAL_I2C_Master_Transmit
                0x08004190                HAL_I2C_Master_Receive
                0x08004470                HAL_I2C_Slave_Transmit
                0x080045d0                HAL_I2C_Slave_Receive
                0x0800474c                HAL_I2C_Master_Transmit_IT
                0x080047fc                HAL_I2C_Master_Receive_IT
                0x080048b4                HAL_I2C_Slave_Transmit_IT
                0x08004924                HAL_I2C_Slave_Receive_IT
                0x08004994                HAL_I2C_Master_Transmit_DMA
                0x08004ac0                HAL_I2C_Master_Receive_DMA
                0x08004be8                HAL_I2C_Slave_Transmit_DMA
                0x08004ca8                HAL_I2C_Slave_Receive_DMA
                0x08004d68                HAL_I2C_Mem_Write
                0x08004e88                HAL_I2C_Mem_Read
                0x08005098                HAL_I2C_Mem_Write_IT
                0x08005154                HAL_I2C_Mem_Read_IT
                0x08005220                HAL_I2C_Mem_Write_DMA
                0x08005368                HAL_I2C_Mem_Read_DMA
                0x080054f4                HAL_I2C_IsDeviceReady
                0x08005654                HAL_I2C_Master_Seq_Transmit_IT
                0x08005724                HAL_I2C_Master_Seq_Transmit_DMA
                0x08005898                HAL_I2C_Master_Seq_Receive_IT
                0x080059a4                HAL_I2C_Master_Seq_Receive_DMA
                0x08005b70                HAL_I2C_Slave_Seq_Transmit_IT
                0x08005be6                HAL_I2C_Slave_Seq_Transmit_DMA
                0x08005d24                HAL_I2C_Slave_Seq_Receive_IT
                0x08005d9a                HAL_I2C_Slave_Seq_Receive_DMA
                0x08005ed8                HAL_I2C_EnableListen_IT
                0x08005f0e                HAL_I2C_DisableListen_IT
                0x08005f4c                HAL_I2C_MasterTxCpltCallback
                0x08005f4e                HAL_I2C_MasterRxCpltCallback
                0x08005f50                HAL_I2C_SlaveTxCpltCallback
                0x08005f52                HAL_I2C_SlaveRxCpltCallback
                0x08005f54                HAL_I2C_AddrCallback
                0x08005f56                HAL_I2C_ListenCpltCallback
                0x08005f58                HAL_I2C_MemTxCpltCallback
                0x08005f5a                HAL_I2C_MemRxCpltCallback
                0x08005f5c                HAL_I2C_ErrorCallback
                0x080060aa                HAL_I2C_AbortCpltCallback
                0x0800627c                HAL_I2C_Master_Abort_IT
                0x080062c8                HAL_I2C_EV_IRQHandler
                0x08006ad4                HAL_I2C_ER_IRQHandler
                0x08006c08                HAL_I2C_GetState
                0x08006c0e                HAL_I2C_GetMode
                0x08006c14                HAL_I2C_GetError
 .text          0x08006c18       0x7c build/stm32f4_HAL/stm32f4xx_hal_i2c_ex.o
                0x08006c18                HAL_I2CEx_ConfigAnalogFilter
                0x08006c56                HAL_I2CEx_ConfigDigitalFilter
 .text          0x08006c94     0x1dfc build/stm32f4_HAL/stm32f4xx_hal_tim.o
                0x08006db0                HAL_TIM_Base_MspInit
                0x08006db2                HAL_TIM_Base_MspDeInit
                0x08006db4                HAL_TIM_Base_DeInit
                0x08006dee                HAL_TIM_Base_Start
                0x08006e12                HAL_TIM_Base_Stop
                0x08006e40                HAL_TIM_Base_Start_IT
                0x08006e60                HAL_TIM_Base_Stop_IT
                0x08006e8a                HAL_TIM_Base_Start_DMA
                0x08006ef4                HAL_TIM_Base_Stop_DMA
                0x08006f30                HAL_TIM_OC_MspInit
                0x08006f32                HAL_TIM_OC_MspDeInit
                0x08006f34                HAL_TIM_OC_DeInit
                0x08006f70                HAL_TIM_PWM_MspDeInit
                0x08006f72                HAL_TIM_PWM_DeInit
                0x08006fac                HAL_TIM_IC_MspInit
                0x08006fae                HAL_TIM_IC_MspDeInit
                0x08006fb0                HAL_TIM_IC_DeInit
                0x08006fea                HAL_TIM_OnePulse_MspInit
                0x08006fec                HAL_TIM_OnePulse_MspDeInit
                0x08006fee                HAL_TIM_OnePulse_DeInit
                0x08007028                HAL_TIM_OnePulse_Start
                0x08007068                HAL_TIM_OnePulse_Stop
                0x080070d0                HAL_TIM_OnePulse_Start_IT
                0x08007120                HAL_TIM_OnePulse_Stop_IT
                0x08007198                HAL_TIM_Encoder_MspInit
                0x0800719a                HAL_TIM_Encoder_MspDeInit
                0x0800719c                HAL_TIM_Encoder_DeInit
                0x080071d6                HAL_TIM_Encoder_Start
                0x0800721a                HAL_TIM_Encoder_Stop
                0x08007262                HAL_TIM_Encoder_Start_IT
                0x080072d0                HAL_TIM_Encoder_Stop_IT
                0x08007344                HAL_TIM_Encoder_Start_DMA
                0x08007488                HAL_TIM_Encoder_Stop_DMA
                0x0800751a                HAL_TIM_DMABurst_WriteStart
                0x080075f8                HAL_TIM_DMABurst_WriteStop
                0x0800765c                HAL_TIM_DMABurst_ReadStart
                0x08007740                HAL_TIM_DMABurst_ReadStop
                0x08007744                HAL_TIM_GenerateEvent
                0x08007768                HAL_TIM_ConfigTI1Input
                0x08007778                HAL_TIM_ReadCapturedValue
                0x080077a4                HAL_TIM_PeriodElapsedCallback
                0x080077b6                HAL_TIM_PeriodElapsedHalfCpltCallback
                0x080077c8                HAL_TIM_OC_DelayElapsedCallback
                0x080077ca                HAL_TIM_IC_CaptureCallback
                0x080077cc                TIM_DMACaptureCplt
                0x08007808                HAL_TIM_IC_CaptureHalfCpltCallback
                0x0800780a                TIM_DMACaptureHalfCplt
                0x08007846                HAL_TIM_PWM_PulseFinishedCallback
                0x08007848                TIM_DMADelayPulseCplt
                0x08007884                HAL_TIM_PWM_PulseFinishedHalfCpltCallback
                0x08007886                TIM_DMADelayPulseHalfCplt
                0x080078c2                HAL_TIM_TriggerCallback
                0x080078c4                HAL_TIM_IRQHandler
                0x08007a18                HAL_TIM_TriggerHalfCpltCallback
                0x08007a2a                HAL_TIM_ErrorCallback
                0x08007a2c                TIM_DMAError
                0x08007a3c                HAL_TIM_Base_GetState
                0x08007a42                HAL_TIM_OC_GetState
                0x08007a48                HAL_TIM_PWM_GetState
                0x08007a4e                HAL_TIM_IC_GetState
                0x08007a54                HAL_TIM_OnePulse_GetState
                0x08007a5a                HAL_TIM_Encoder_GetState
                0x08007a60                TIM_Base_SetConfig
                0x08007b2c                HAL_TIM_Base_Init
                0x08007b60                HAL_TIM_OC_Init
                0x08007b94                HAL_TIM_PWM_Init
                0x08007bc8                HAL_TIM_IC_Init
                0x08007bfc                HAL_TIM_OnePulse_Init
                0x08007c42                HAL_TIM_Encoder_Init
                0x08007cd8                TIM_OC2_SetConfig
                0x08007d44                HAL_TIM_OC_ConfigChannel
                0x08007d9c                HAL_TIM_PWM_ConfigChannel
                0x08007e5c                TIM_TI1_SetConfig
                0x08007ed0                HAL_TIM_IC_ConfigChannel
                0x08007fe6                HAL_TIM_OnePulse_ConfigChannel
                0x080080dc                TIM_ETR_SetConfig
                0x080080f0                HAL_TIM_ConfigOCrefClear
                0x080081bc                HAL_TIM_ConfigClockSource
                0x0800838c                HAL_TIM_SlaveConfigSynchro
                0x080083da                HAL_TIM_SlaveConfigSynchro_IT
                0x08008428                TIM_CCxChannelCmd
                0x08008444                HAL_TIM_OC_Start
                0x08008484                HAL_TIM_PWM_Start
                0x08008488                HAL_TIM_OC_Stop
                0x080084e4                HAL_TIM_OC_Start_IT
                0x08008554                HAL_TIM_PWM_Start_IT
                0x08008558                HAL_TIM_OC_Stop_IT
                0x080085e8                HAL_TIM_PWM_Stop_IT
                0x080085ec                HAL_TIM_OC_Start_DMA
                0x080086fc                HAL_TIM_PWM_Start_DMA
                0x08008700                HAL_TIM_OC_Stop_DMA
                0x080087b0                HAL_TIM_PWM_Stop_DMA
                0x080087b4                HAL_TIM_PWM_Stop
                0x08008818                HAL_TIM_IC_Start
                0x0800883c                HAL_TIM_IC_Stop
                0x0800886a                HAL_TIM_IC_Start_IT
                0x080088c0                HAL_TIM_IC_Stop_IT
                0x08008920                HAL_TIM_IC_Start_DMA
                0x08008a10                HAL_TIM_IC_Stop_DMA
 .text          0x08008a90      0x820 build/stm32f4_HAL/stm32f4xx_hal_tim_ex.o
                0x08008aac                HAL_TIMEx_HallSensor_MspInit
                0x08008aae                HAL_TIMEx_HallSensor_Init
                0x08008b5c                HAL_TIMEx_HallSensor_MspDeInit
                0x08008b5e                HAL_TIMEx_HallSensor_DeInit
                0x08008b98                HAL_TIMEx_HallSensor_Start
                0x08008bbe                HAL_TIMEx_HallSensor_Stop
                0x08008bee                HAL_TIMEx_HallSensor_Start_IT
                0x08008c1c                HAL_TIMEx_HallSensor_Stop_IT
                0x08008c54                HAL_TIMEx_HallSensor_Start_DMA
                0x08008cd4                HAL_TIMEx_HallSensor_Stop_DMA
                0x08008d14                HAL_TIMEx_OCN_Start
                0x08008d40                HAL_TIMEx_OCN_Stop
                0x08008d8a                HAL_TIMEx_OCN_Start_IT
                0x08008de0                HAL_TIMEx_OCN_Stop_IT
                0x08008e5e                HAL_TIMEx_OCN_Start_DMA
                0x08008f30                HAL_TIMEx_OCN_Stop_DMA
                0x08008fb6                HAL_TIMEx_PWMN_Start
                0x08008fba                HAL_TIMEx_PWMN_Stop
                0x08008fbe                HAL_TIMEx_PWMN_Start_IT
                0x08008fc2                HAL_TIMEx_PWMN_Stop_IT
                0x08008fc6                HAL_TIMEx_PWMN_Start_DMA
                0x08008fca                HAL_TIMEx_PWMN_Stop_DMA
                0x08008fce                HAL_TIMEx_OnePulseN_Start
                0x08008fe8                HAL_TIMEx_OnePulseN_Stop
                0x08008fec                HAL_TIMEx_OnePulseN_Start_IT
                0x08009016                HAL_TIMEx_OnePulseN_Stop_IT
                0x08009070                HAL_TIMEx_ConfigCommutEvent
                0x080090ca                HAL_TIMEx_ConfigCommutEvent_IT
                0x08009124                HAL_TIMEx_ConfigCommutEvent_DMA
                0x08009198                HAL_TIMEx_MasterConfigSynchronization
                0x08009218                HAL_TIMEx_ConfigBreakDeadTime
                0x0800926a                HAL_TIMEx_RemapConfig
                0x08009284                HAL_TIMEx_CommutCallback
                0x08009286                TIMEx_DMACommutationCplt
                0x08009296                HAL_TIMEx_CommutHalfCpltCallback
                0x08009298                TIMEx_DMACommutationHalfCplt
                0x080092a8                HAL_TIMEx_BreakCallback
                0x080092aa                HAL_TIMEx_HallSensor_GetState
 .text          0x080092b0        0x0 build/stm32f4_HAL/stm32f4xx_hal_rtc.o
 .text          0x080092b0      0x6d0 build/stm32f4_HAL/stm32f4xx_hal_rcc.o
                0x080095fe                HAL_RCC_MCOConfig
                0x08009698                HAL_RCC_EnableCSS
                0x080096a4                HAL_RCC_DisableCSS
                0x0800970c                HAL_RCC_ClockConfig
                0x08009844                HAL_RCC_GetHCLKFreq
                0x08009850                HAL_RCC_GetPCLK1Freq
                0x08009870                HAL_RCC_GetPCLK2Freq
                0x08009924                HAL_RCC_GetClockConfig
                0x08009960                HAL_RCC_CSSCallback
                0x08009962                HAL_RCC_NMI_IRQHandler
 .text          0x08009980      0xdb4 build/stm32f4_HAL/stm32f4xx_hal_rcc_ex.o
                0x08009980                HAL_RCCEx_PeriphCLKConfig
                0x08009d8c                HAL_RCCEx_GetPeriphCLKConfig
                0x08009e88                HAL_RCCEx_GetPeriphCLKFreq
                0x0800a030                HAL_RCCEx_SelectLSEMode
                0x0800a048                HAL_RCCEx_EnablePLLI2S
                0x0800a0bc                HAL_RCCEx_DisablePLLI2S
                0x0800a0f0                HAL_RCCEx_EnablePLLSAI
                0x0800a15c                HAL_RCCEx_DisablePLLSAI
                0x0800a190                HAL_RCC_GetSysClockFreq
                0x0800a220                HAL_RCC_DeInit
                0x0800a374                HAL_RCC_OscConfig
                0x0800a698                HAL_RCC_GetOscConfig
 .text          0x0800a734      0x1ac build/stm32f4_HAL/stm32f4xx_hal_pwr.o
                0x0800a734                HAL_PWR_DeInit
                0x0800a74c                HAL_PWR_EnableBkUpAccess
                0x0800a758                HAL_PWR_DisableBkUpAccess
                0x0800a764                HAL_PWR_ConfigPVD
                0x0800a7d4                HAL_PWR_EnablePVD
                0x0800a7e0                HAL_PWR_DisablePVD
                0x0800a7ec                HAL_PWR_EnableWakeUpPin
                0x0800a7fc                HAL_PWR_DisableWakeUpPin
                0x0800a80c                HAL_PWR_EnterSLEEPMode
                0x0800a82c                HAL_PWR_EnterSTOPMode
                0x0800a864                HAL_PWR_EnterSTANDBYMode
                0x0800a884                HAL_PWR_PVDCallback
                0x0800a886                HAL_PWR_PVD_IRQHandler
                0x0800a8a0                HAL_PWR_EnableSleepOnExit
                0x0800a8b0                HAL_PWR_DisableSleepOnExit
                0x0800a8c0                HAL_PWR_EnableSEVOnPend
                0x0800a8d0                HAL_PWR_DisableSEVOnPend
 .text          0x0800a8e0      0x298 build/stm32f4_HAL/stm32f4xx_hal_pwr_ex.o
                0x0800a8e0                HAL_PWREx_EnableBkUpReg
                0x0800a914                HAL_PWREx_DisableBkUpReg
                0x0800a948                HAL_PWREx_EnableFlashPowerDown
                0x0800a954                HAL_PWREx_DisableFlashPowerDown
                0x0800a960                HAL_PWREx_GetVoltageRange
                0x0800a970                HAL_PWREx_ControlVoltageScaling
                0x0800aa20                HAL_PWREx_EnableOverDrive
                0x0800aa98                HAL_PWREx_DisableOverDrive
                0x0800ab10                HAL_PWREx_EnterUnderDriveSTOPMode
 .text          0x0800ab78      0x2d0 build/stm32f4_HAL/stm32f4xx_hal_cortex.o
                0x0800ab78                HAL_NVIC_SetPriorityGrouping
                0x0800ab9c                HAL_NVIC_SetPriority
                0x0800ac00                HAL_NVIC_EnableIRQ
                0x0800ac1c                HAL_NVIC_DisableIRQ
                0x0800ac44                HAL_NVIC_SystemReset
                0x0800ac68                HAL_SYSTICK_Config
                0x0800ac94                HAL_MPU_Disable
                0x0800acb4                HAL_MPU_Enable
                0x0800acd8                HAL_MPU_ConfigRegion
                0x0800ad30                HAL_NVIC_GetPriorityGrouping
                0x0800ad40                HAL_NVIC_GetPriority
                0x0800ad9c                HAL_NVIC_SetPendingIRQ
                0x0800adbc                HAL_NVIC_GetPendingIRQ
                0x0800ade0                HAL_NVIC_ClearPendingIRQ
                0x0800ae00                HAL_NVIC_GetActive
                0x0800ae24                HAL_SYSTICK_CLKSourceConfig
                0x0800ae3c                HAL_SYSTICK_Callback
                0x0800ae3e                HAL_SYSTICK_IRQHandler
 .text          0x0800ae48     0x1828 build/stm32f4_HAL/stm32f4xx_hal_spi.o
                0x0800afec                HAL_SPI_MspInit
                0x0800afee                HAL_SPI_Init
                0x0800b072                HAL_SPI_MspDeInit
                0x0800b074                HAL_SPI_DeInit
                0x0800b0a0                HAL_SPI_Transmit
                0x0800b21a                HAL_SPI_TransmitReceive
                0x0800b49a                HAL_SPI_Receive
                0x0800b65a                HAL_SPI_Transmit_IT
                0x0800b700                HAL_SPI_TransmitReceive_IT
                0x0800b7c8                HAL_SPI_Receive_IT
                0x0800b890                HAL_SPI_Transmit_DMA
                0x0800b968                HAL_SPI_TransmitReceive_DMA
                0x0800ba8c                HAL_SPI_Receive_DMA
                0x0800bb90                HAL_SPI_Abort
                0x0800bcb8                HAL_SPI_DMAPause
                0x0800bcd8                HAL_SPI_DMAResume
                0x0800bcf8                HAL_SPI_DMAStop
                0x0800bd3e                HAL_SPI_TxCpltCallback
                0x0800bd40                HAL_SPI_RxCpltCallback
                0x0800bd42                HAL_SPI_TxRxCpltCallback
                0x0800bd44                HAL_SPI_TxHalfCpltCallback
                0x0800bd50                HAL_SPI_RxHalfCpltCallback
                0x0800bd5c                HAL_SPI_TxRxHalfCpltCallback
                0x0800bd68                HAL_SPI_ErrorCallback
                0x0800c32a                HAL_SPI_IRQHandler
                0x0800c444                HAL_SPI_AbortCpltCallback
                0x0800c446                HAL_SPI_Abort_IT
                0x0800c664                HAL_SPI_GetState
                0x0800c66a                HAL_SPI_GetError
 .text          0x0800c670        0x0 build/FreeRTOS/croutine.o
 .text          0x0800c670      0x274 build/FreeRTOS/event_groups.o
                0x0800c670                xEventGroupCreateStatic
                0x0800c688                xEventGroupCreate
                0x0800c6a4                xEventGroupWaitBits
                0x0800c75c                xEventGroupClearBits
                0x0800c776                vEventGroupClearBitsCallback
                0x0800c77a                xEventGroupClearBitsFromISR
                0x0800c78c                xEventGroupGetBitsFromISR
                0x0800c7a8                xEventGroupSetBits
                0x0800c804                xEventGroupSync
                0x0800c898                vEventGroupSetBitsCallback
                0x0800c89c                vEventGroupDelete
                0x0800c8c6                xEventGroupSetBitsFromISR
                0x0800c8d8                uxEventGroupGetNumber
                0x0800c8de                vEventGroupSetNumber
 .text          0x0800c8e4       0x82 build/FreeRTOS/list.o
                0x0800c8e4                vListInitialise
                0x0800c8fa                vListInitialiseItem
                0x0800c900                vListInsertEnd
                0x0800c918                vListInsert
                0x0800c946                uxListRemove
 *fill*         0x0800c966        0x2 
 .text          0x0800c968      0x8fc build/FreeRTOS/queue.o
                0x0800ca84                xQueueGenericReset
                0x0800caf0                xQueueGenericCreateStatic
                0x0800cb1c                xQueueGenericCreate
                0x0800cb56                xQueueGetMutexHolder
                0x0800cb70                xQueueGetMutexHolderFromISR
                0x0800cb7c                xQueueCreateCountingSemaphoreStatic
                0x0800cb96                xQueueCreateCountingSemaphore
                0x0800cba8                xQueueGenericSend
                0x0800ccac                xQueueCreateMutexStatic
                0x0800ccd6                xQueueGiveMutexRecursive
                0x0800ccfe                xQueueCreateMutex
                0x0800cd22                xQueueGenericSendFromISR
                0x0800cd8a                xQueueGiveFromISR
                0x0800cde6                xQueueReceive
                0x0800ced8                xQueueSemaphoreTake
                0x0800d000                xQueueTakeMutexRecursive
                0x0800d030                xQueuePeek
                0x0800d120                xQueueReceiveFromISR
                0x0800d188                xQueuePeekFromISR
                0x0800d1b8                uxQueueMessagesWaiting
                0x0800d1ce                uxQueueSpacesAvailable
                0x0800d1e8                uxQueueMessagesWaitingFromISR
                0x0800d1ec                vQueueDelete
                0x0800d1f8                uxQueueGetQueueNumber
                0x0800d1fc                vQueueSetQueueNumber
                0x0800d200                ucQueueGetQueueType
                0x0800d206                xQueueIsQueueEmptyFromISR
                0x0800d210                xQueueIsQueueFullFromISR
                0x0800d21c                vQueueWaitForMessageRestricted
 .text          0x0800d264     0x1264 build/FreeRTOS/tasks.o
                0x0800d524                xTaskCreateStatic
                0x0800d558                xTaskCreate
                0x0800d5b4                vTaskDelete
                0x0800d638                eTaskGetState
                0x0800d694                uxTaskPriorityGet
                0x0800d6b4                uxTaskPriorityGetFromISR
                0x0800d6dc                vTaskPrioritySet
                0x0800d78c                vTaskResume
                0x0800d810                xTaskResumeFromISR
                0x0800d898                vTaskStartScheduler
                0x0800d910                vTaskEndScheduler
                0x0800d930                vTaskSuspendAll
                0x0800d944                xTaskGetTickCount
                0x0800d950                xTaskGetTickCountFromISR
                0x0800d95c                uxTaskGetNumberOfTasks
                0x0800d968                pcTaskGetName
                0x0800d978                xTaskIncrementTick
                0x0800da58                xTaskResumeAll
                0x0800db1c                vTaskDelayUntil
                0x0800db6c                vTaskDelay
                0x0800db9c                vTaskSwitchContext
                0x0800dc00                vTaskSuspend
                0x0800dc90                vTaskPlaceOnEventList
                0x0800dcac                vTaskPlaceOnUnorderedEventList
                0x0800dcd4                vTaskPlaceOnEventListRestricted
                0x0800dcfc                xTaskRemoveFromEventList
                0x0800dd64                vTaskRemoveFromUnorderedEventList
                0x0800ddb8                vTaskSetTimeOutState
                0x0800dddc                vTaskInternalSetTimeOutState
                0x0800ddf0                xTaskCheckForTimeOut
                0x0800de40                vTaskMissedYield
                0x0800de50                uxTaskGetTaskNumber
                0x0800de56                vTaskSetTaskNumber
                0x0800de5c                vTaskGetInfo
                0x0800df36                uxTaskGetSystemState
                0x0800dfcc                uxTaskGetStackHighWaterMark
                0x0800dfec                xTaskGetCurrentTaskHandle
                0x0800dff8                xTaskGetSchedulerState
                0x0800e018                xTaskPriorityInherit
                0x0800e09c                xTaskPriorityDisinherit
                0x0800e0f8                vTaskPriorityDisinheritAfterTimeout
                0x0800e168                uxTaskResetEventItemValue
                0x0800e180                pvTaskIncrementMutexHeldCount
                0x0800e198                ulTaskNotifyTake
                0x0800e204                xTaskNotifyWait
                0x0800e298                xTaskGenericNotify
                0x0800e348                xTaskGenericNotifyFromISR
                0x0800e408                vTaskNotifyGiveFromISR
                0x0800e49c                xTaskNotifyStateClear
 .text          0x0800e4c8      0x430 build/FreeRTOS/timers.o
                0x0800e544                xTimerCreateTimerTask
                0x0800e594                xTimerCreate
                0x0800e5ce                xTimerCreateStatic
                0x0800e602                xTimerGenericCommand
                0x0800e844                xTimerGetTimerDaemonTaskHandle
                0x0800e850                xTimerGetPeriod
                0x0800e854                xTimerGetExpiryTime
                0x0800e858                pcTimerGetName
                0x0800e85c                xTimerIsTimerActive
                0x0800e878                pvTimerGetTimerID
                0x0800e88e                vTimerSetTimerID
                0x0800e8a2                xTimerPendFunctionCallFromISR
                0x0800e8c8                xTimerPendFunctionCall
                0x0800e8f0                uxTimerGetTimerNumber
                0x0800e8f4                vTimerSetTimerNumber
 .text          0x0800e8f8      0x4fe build/FreeRTOS/stream_buffer.o
                0x0800e9e2                xStreamBufferGenericCreate
                0x0800ea1a                xStreamBufferGenericCreateStatic
                0x0800ea5c                vStreamBufferDelete
                0x0800ea6e                xStreamBufferReset
                0x0800eab0                xStreamBufferSetTriggerLevel
                0x0800eac4                xStreamBufferSpacesAvailable
                0x0800ead8                xStreamBufferBytesAvailable
                0x0800eada                xStreamBufferSend
                0x0800ebba                xStreamBufferSendFromISR
                0x0800ec4e                xStreamBufferReceive
                0x0800ece6                xStreamBufferReceiveFromISR
                0x0800ed4e                xStreamBufferIsEmpty
                0x0800ed5a                xStreamBufferIsFull
                0x0800ed76                xStreamBufferSendCompletedFromISR
                0x0800edae                xStreamBufferReceiveCompletedFromISR
                0x0800ede6                uxStreamBufferGetStreamBufferNumber
                0x0800edea                vStreamBufferSetStreamBufferNumber
                0x0800edee                ucStreamBufferGetStreamBufferType
 *fill*         0x0800edf6        0x2 
 .text          0x0800edf8     0x1230 build/FreeRTOS/cmsis_os2.o
                0x0800ee0c                SysTick_Handler
                0x0800ee18                osKernelInitialize
                0x0800ee50                osKernelGetInfo
                0x0800ee7c                osKernelGetState
                0x0800ee9c                osKernelStart
                0x0800eedc                osKernelLock
                0x0800ef24                osKernelUnlock
                0x0800ef78                osKernelRestoreLock
                0x0800efd8                osKernelGetTickCount
                0x0800f004                osKernelGetTickFreq
                0x0800f00a                osKernelGetSysTimerCount
                0x0800f046                osKernelGetSysTimerFreq
                0x0800f050                osThreadNew
                0x0800f108                osThreadGetName
                0x0800f130                osThreadGetId
                0x0800f158                osThreadGetState
                0x0800f198                osThreadGetStackSpace
                0x0800f1c0                osThreadSetPriority
                0x0800f200                osThreadGetPriority
                0x0800f22c                osThreadYield
                0x0800f26c                osThreadSuspend
                0x0800f2a8                osThreadResume
                0x0800f2e4                osThreadExit
                0x0800f2ee                osThreadTerminate
                0x0800f33c                osThreadGetCount
                0x0800f364                osThreadEnumerate
                0x0800f3e8                osThreadFlagsSet
                0x0800f47c                osThreadFlagsClear
                0x0800f4e8                osThreadFlagsGet
                0x0800f534                osThreadFlagsWait
                0x0800f5e8                osDelay
                0x0800f620                osDelayUntil
                0x0800f664                osTimerNew
                0x0800f6ec                osTimerGetName
                0x0800f714                osTimerStart
                0x0800f764                osTimerStop
                0x0800f7c0                osTimerIsRunning
                0x0800f7e8                osTimerDelete
                0x0800f84c                osEventFlagsNew
                0x0800f888                osEventFlagsSet
                0x0800f8f8                osEventFlagsClear
                0x0800f958                osEventFlagsGet
                0x0800f990                osEventFlagsWait
                0x0800fa00                osEventFlagsDelete
                0x0800fa3c                osMutexNew
                0x0800fab0                osMutexAcquire
                0x0800fb14                osMutexRelease
                0x0800fb6c                osMutexGetOwner
                0x0800fb98                osMutexDelete
                0x0800fbd8                osSemaphoreNew
                0x0800fc78                osSemaphoreAcquire
                0x0800fcf0                osSemaphoreRelease
                0x0800fd60                osSemaphoreGetCount
                0x0800fd94                osSemaphoreDelete
                0x0800fdd0                osMessageQueueNew
                0x0800fe48                osMessageQueuePut
                0x0800fed0                osMessageQueueGet
                0x0800ff54                osMessageQueueGetCapacity
                0x0800ff5a                osMessageQueueGetMsgSize
                0x0800ff60                osMessageQueueGetCount
                0x0800ff64                osMessageQueueGetSpace
                0x0800ffb0                osMessageQueueReset
                0x0800ffec                osMessageQueueDelete
                0x0800fff0                vApplicationGetIdleTaskMemory
                0x0801000c                vApplicationGetTimerTaskMemory
 .text          0x08010028        0x4 build/FreeRTOS/clib_arm.o
                0x08010028                software_init_hook
 .text          0x0801002c       0xe0 build/FreeRTOS/os_systick.o
                0x0801002c                OS_Tick_Setup
                0x0801006c                OS_Tick_Enable
                0x08010098                OS_Tick_Disable
                0x080100c4                OS_Tick_AcknowledgeIRQ
                0x080100d0                OS_Tick_GetIRQn
                0x080100d6                OS_Tick_GetClock
                0x080100e0                OS_Tick_GetInterval
                0x080100ec                OS_Tick_GetCount
                0x080100fc                OS_Tick_GetOverflow
 .text          0x0801010c       0x8c build/FreeRTOS/heap_useNewlib.o
                0x0801010c                sbrk
                0x0801015c                _sbrk
                0x08010160                __malloc_lock
                0x08010164                __malloc_unlock
                0x08010168                __env_lock
                0x0801016c                __env_unlock
                0x08010170                pvPortMalloc
                0x08010174                vPortFree
                0x08010178                xPortGetFreeHeapSize
                0x08010194                vPortInitialiseBlocks
 *fill*         0x08010198        0x8 
 .text          0x080101a0      0x1f8 build/FreeRTOS/port.o
                0x080101f0                pxPortInitialiseStack
                0x0801021c                SVC_Handler
                0x08010244                vPortEndScheduler
                0x08010246                vPortEnterCritical
                0x08010264                vPortExitCritical
                0x08010278                PendSV_Handler
                0x080102e4                xPortSysTickHandler
                0x08010314                vPortSetupTimerInterrupt
                0x08010348                xPortStartScheduler
 .text          0x08010398       0xa0 d:/toolchain/gcc-arm-none-eabi/bin/../lib/gcc/arm-none-eabi/9.2.1/thumb/v7e-m+fp/hard\libgcc.a(_aeabi_ldivmod.o)
                0x08010398                __aeabi_ldivmod
 .text          0x08010438       0x30 d:/toolchain/gcc-arm-none-eabi/bin/../lib/gcc/arm-none-eabi/9.2.1/thumb/v7e-m+fp/hard\libgcc.a(_aeabi_uldivmod.o)
                0x08010438                __aeabi_uldivmod
 .text          0x08010468      0x2c4 d:/toolchain/gcc-arm-none-eabi/bin/../lib/gcc/arm-none-eabi/9.2.1/thumb/v7e-m+fp/hard\libgcc.a(_udivmoddi4.o)
                0x08010468                __udivmoddi4
 .text          0x0801072c        0x4 d:/toolchain/gcc-arm-none-eabi/bin/../lib/gcc/arm-none-eabi/9.2.1/thumb/v7e-m+fp/hard\libgcc.a(_dvmd_tls.o)
                0x0801072c                __aeabi_idiv0
                0x0801072c                __aeabi_ldiv0
 .text          0x08010730        0x0 d:/toolchain/gcc-arm-none-eabi/bin/../lib/gcc/arm-none-eabi/9.2.1/../../../../arm-none-eabi/lib/thumb/v7e-m+fp/hard\libc_nano.a(lib_a-atoi.o)
 .text          0x08010730        0x0 d:/toolchain/gcc-arm-none-eabi/bin/../lib/gcc/arm-none-eabi/9.2.1/../../../../arm-none-eabi/lib/thumb/v7e-m+fp/hard\libc_nano.a(lib_a-ctype_.o)
 .text          0x08010730        0x0 d:/toolchain/gcc-arm-none-eabi/bin/../lib/gcc/arm-none-eabi/9.2.1/../../../../arm-none-eabi/lib/thumb/v7e-m+fp/hard\libc_nano.a(lib_a-exit.o)
 .text          0x08010730        0x0 d:/toolchain/gcc-arm-none-eabi/bin/../lib/gcc/arm-none-eabi/9.2.1/../../../../arm-none-eabi/lib/thumb/v7e-m+fp/hard\libc_nano.a(lib_a-getchar.o)
 .text          0x08010730        0x0 d:/toolchain/gcc-arm-none-eabi/bin/../lib/gcc/arm-none-eabi/9.2.1/../../../../arm-none-eabi/lib/thumb/v7e-m+fp/hard\libc_nano.a(lib_a-impure.o)
 .text          0x08010730        0x0 d:/toolchain/gcc-arm-none-eabi/bin/../lib/gcc/arm-none-eabi/9.2.1/../../../../arm-none-eabi/lib/thumb/v7e-m+fp/hard\libc_nano.a(lib_a-init.o)
 .text          0x08010730        0x0 d:/toolchain/gcc-arm-none-eabi/bin/../lib/gcc/arm-none-eabi/9.2.1/../../../../arm-none-eabi/lib/thumb/v7e-m+fp/hard\libc_nano.a(lib_a-malloc.o)
 .text          0x08010730        0x0 d:/toolchain/gcc-arm-none-eabi/bin/../lib/gcc/arm-none-eabi/9.2.1/../../../../arm-none-eabi/lib/thumb/v7e-m+fp/hard\libc_nano.a(lib_a-memcpy-stub.o)
 .text          0x08010730        0x0 d:/toolchain/gcc-arm-none-eabi/bin/../lib/gcc/arm-none-eabi/9.2.1/../../../../arm-none-eabi/lib/thumb/v7e-m+fp/hard\libc_nano.a(lib_a-memset.o)
 .text          0x08010730        0x0 d:/toolchain/gcc-arm-none-eabi/bin/../lib/gcc/arm-none-eabi/9.2.1/../../../../arm-none-eabi/lib/thumb/v7e-m+fp/hard\libc_nano.a(lib_a-mstats.o)
 .text          0x08010730        0x0 d:/toolchain/gcc-arm-none-eabi/bin/../lib/gcc/arm-none-eabi/9.2.1/../../../../arm-none-eabi/lib/thumb/v7e-m+fp/hard\libc_nano.a(lib_a-nano-freer.o)
 .text          0x08010730        0x0 d:/toolchain/gcc-arm-none-eabi/bin/../lib/gcc/arm-none-eabi/9.2.1/../../../../arm-none-eabi/lib/thumb/v7e-m+fp/hard\libc_nano.a(lib_a-nano-mallinfor.o)
 .text          0x08010730        0x0 d:/toolchain/gcc-arm-none-eabi/bin/../lib/gcc/arm-none-eabi/9.2.1/../../../../arm-none-eabi/lib/thumb/v7e-m+fp/hard\libc_nano.a(lib_a-nano-mallocr.o)
 .text          0x08010730        0x0 d:/toolchain/gcc-arm-none-eabi/bin/../lib/gcc/arm-none-eabi/9.2.1/../../../../arm-none-eabi/lib/thumb/v7e-m+fp/hard\libc_nano.a(lib_a-nano-malloptr.o)
 .text          0x08010730        0x0 d:/toolchain/gcc-arm-none-eabi/bin/../lib/gcc/arm-none-eabi/9.2.1/../../../../arm-none-eabi/lib/thumb/v7e-m+fp/hard\libc_nano.a(lib_a-nano-mallstatsr.o)
 .text          0x08010730        0x0 d:/toolchain/gcc-arm-none-eabi/bin/../lib/gcc/arm-none-eabi/9.2.1/../../../../arm-none-eabi/lib/thumb/v7e-m+fp/hard\libc_nano.a(lib_a-nano-vfprintf_float.o)
 .text          0x08010730        0x0 d:/toolchain/gcc-arm-none-eabi/bin/../lib/gcc/arm-none-eabi/9.2.1/../../../../arm-none-eabi/lib/thumb/v7e-m+fp/hard\libc_nano.a(lib_a-nano-vfprintf_i.o)
 .text          0x08010730        0x0 d:/toolchain/gcc-arm-none-eabi/bin/../lib/gcc/arm-none-eabi/9.2.1/../../../../arm-none-eabi/lib/thumb/v7e-m+fp/hard\libc_nano.a(lib_a-nano-vfscanf_float.o)
 .text          0x08010730        0x0 d:/toolchain/gcc-arm-none-eabi/bin/../lib/gcc/arm-none-eabi/9.2.1/../../../../arm-none-eabi/lib/thumb/v7e-m+fp/hard\libc_nano.a(lib_a-printf.o)
 .text          0x08010730        0x0 d:/toolchain/gcc-arm-none-eabi/bin/../lib/gcc/arm-none-eabi/9.2.1/../../../../arm-none-eabi/lib/thumb/v7e-m+fp/hard\libc_nano.a(lib_a-reent.o)
 .text          0x08010730        0x0 d:/toolchain/gcc-arm-none-eabi/bin/../lib/gcc/arm-none-eabi/9.2.1/../../../../arm-none-eabi/lib/thumb/v7e-m+fp/hard\libc_nano.a(lib_a-sbrkr.o)
 .text          0x08010730        0x0 d:/toolchain/gcc-arm-none-eabi/bin/../lib/gcc/arm-none-eabi/9.2.1/../../../../arm-none-eabi/lib/thumb/v7e-m+fp/hard\libc_nano.a(lib_a-setvbuf.o)
 .text          0x08010730        0x0 d:/toolchain/gcc-arm-none-eabi/bin/../lib/gcc/arm-none-eabi/9.2.1/../../../../arm-none-eabi/lib/thumb/v7e-m+fp/hard\libc_nano.a(lib_a-sf_nan.o)
 .text          0x08010730        0x0 d:/toolchain/gcc-arm-none-eabi/bin/../lib/gcc/arm-none-eabi/9.2.1/../../../../arm-none-eabi/lib/thumb/v7e-m+fp/hard\libc_nano.a(lib_a-sprintf.o)
 .text          0x08010730       0x14 d:/toolchain/gcc-arm-none-eabi/bin/../lib/gcc/arm-none-eabi/9.2.1/../../../../arm-none-eabi/lib/thumb/v7e-m+fp/hard\libc_nano.a(lib_a-strcmp.o)
                0x08010730                strcmp
 .text          0x08010744       0x10 d:/toolchain/gcc-arm-none-eabi/bin/../lib/gcc/arm-none-eabi/9.2.1/../../../../arm-none-eabi/lib/thumb/v7e-m+fp/hard\libc_nano.a(lib_a-strlen.o)
                0x08010744                strlen
 .text          0x08010754        0x0 d:/toolchain/gcc-arm-none-eabi/bin/../lib/gcc/arm-none-eabi/9.2.1/../../../../arm-none-eabi/lib/thumb/v7e-m+fp/hard\libc_nano.a(lib_a-strtod.o)
 .text          0x08010754        0x0 d:/toolchain/gcc-arm-none-eabi/bin/../lib/gcc/arm-none-eabi/9.2.1/../../../../arm-none-eabi/lib/thumb/v7e-m+fp/hard\libc_nano.a(lib_a-strtol.o)
 .text          0x08010754        0x0 d:/toolchain/gcc-arm-none-eabi/bin/../lib/gcc/arm-none-eabi/9.2.1/../../../../arm-none-eabi/lib/thumb/v7e-m+fp/hard\libc_nano.a(lib_a-vprintf.o)
 .text          0x08010754        0x0 d:/toolchain/gcc-arm-none-eabi/bin/../lib/gcc/arm-none-eabi/9.2.1/../../../../arm-none-eabi/lib/thumb/v7e-m+fp/hard\libc_nano.a(lib_a-dtoa.o)
 .text          0x08010754        0x0 d:/toolchain/gcc-arm-none-eabi/bin/../lib/gcc/arm-none-eabi/9.2.1/../../../../arm-none-eabi/lib/thumb/v7e-m+fp/hard\libc_nano.a(lib_a-fflush.o)
 .text          0x08010754        0x0 d:/toolchain/gcc-arm-none-eabi/bin/../lib/gcc/arm-none-eabi/9.2.1/../../../../arm-none-eabi/lib/thumb/v7e-m+fp/hard\libc_nano.a(lib_a-findfp.o)
 .text          0x08010754        0x0 d:/toolchain/gcc-arm-none-eabi/bin/../lib/gcc/arm-none-eabi/9.2.1/../../../../arm-none-eabi/lib/thumb/v7e-m+fp/hard\libc_nano.a(lib_a-fprintf.o)
 .text          0x08010754        0x0 d:/toolchain/gcc-arm-none-eabi/bin/../lib/gcc/arm-none-eabi/9.2.1/../../../../arm-none-eabi/lib/thumb/v7e-m+fp/hard\libc_nano.a(lib_a-fwalk.o)
 .text          0x08010754        0x0 d:/toolchain/gcc-arm-none-eabi/bin/../lib/gcc/arm-none-eabi/9.2.1/../../../../arm-none-eabi/lib/thumb/v7e-m+fp/hard\libc_nano.a(lib_a-gdtoa-gethex.o)
 .text          0x08010754        0x0 d:/toolchain/gcc-arm-none-eabi/bin/../lib/gcc/arm-none-eabi/9.2.1/../../../../arm-none-eabi/lib/thumb/v7e-m+fp/hard\libc_nano.a(lib_a-gdtoa-hexnan.o)
 .text          0x08010754        0x0 d:/toolchain/gcc-arm-none-eabi/bin/../lib/gcc/arm-none-eabi/9.2.1/../../../../arm-none-eabi/lib/thumb/v7e-m+fp/hard\libc_nano.a(lib_a-getc.o)
 .text          0x08010754        0x0 d:/toolchain/gcc-arm-none-eabi/bin/../lib/gcc/arm-none-eabi/9.2.1/../../../../arm-none-eabi/lib/thumb/v7e-m+fp/hard\libc_nano.a(lib_a-lnumeric.o)
 .text          0x08010754        0x0 d:/toolchain/gcc-arm-none-eabi/bin/../lib/gcc/arm-none-eabi/9.2.1/../../../../arm-none-eabi/lib/thumb/v7e-m+fp/hard\libc_nano.a(lib_a-locale.o)
 .text          0x08010754        0x0 d:/toolchain/gcc-arm-none-eabi/bin/../lib/gcc/arm-none-eabi/9.2.1/../../../../arm-none-eabi/lib/thumb/v7e-m+fp/hard\libc_nano.a(lib_a-localeconv.o)
 .text          0x08010754        0x0 d:/toolchain/gcc-arm-none-eabi/bin/../lib/gcc/arm-none-eabi/9.2.1/../../../../arm-none-eabi/lib/thumb/v7e-m+fp/hard\libc_nano.a(lib_a-lock.o)
 .text          0x08010754        0x0 d:/toolchain/gcc-arm-none-eabi/bin/../lib/gcc/arm-none-eabi/9.2.1/../../../../arm-none-eabi/lib/thumb/v7e-m+fp/hard\libc_nano.a(lib_a-makebuf.o)
 .text          0x08010754        0x0 d:/toolchain/gcc-arm-none-eabi/bin/../lib/gcc/arm-none-eabi/9.2.1/../../../../arm-none-eabi/lib/thumb/v7e-m+fp/hard\libc_nano.a(lib_a-mbtowc_r.o)
 *fill*         0x08010754        0xc 
 .text          0x08010760       0xa0 d:/toolchain/gcc-arm-none-eabi/bin/../lib/gcc/arm-none-eabi/9.2.1/../../../../arm-none-eabi/lib/thumb/v7e-m+fp/hard\libc_nano.a(lib_a-memchr.o)
                0x08010760                memchr
 .text          0x08010800        0x0 d:/toolchain/gcc-arm-none-eabi/bin/../lib/gcc/arm-none-eabi/9.2.1/../../../../arm-none-eabi/lib/thumb/v7e-m+fp/hard\libc_nano.a(lib_a-mprec.o)
 .text          0x08010800        0x0 d:/toolchain/gcc-arm-none-eabi/bin/../lib/gcc/arm-none-eabi/9.2.1/../../../../arm-none-eabi/lib/thumb/v7e-m+fp/hard\libc_nano.a(lib_a-nano-callocr.o)
 .text          0x08010800        0x0 d:/toolchain/gcc-arm-none-eabi/bin/../lib/gcc/arm-none-eabi/9.2.1/../../../../arm-none-eabi/lib/thumb/v7e-m+fp/hard\libc_nano.a(lib_a-nano-svfprintf.o)
 .text          0x08010800        0x0 d:/toolchain/gcc-arm-none-eabi/bin/../lib/gcc/arm-none-eabi/9.2.1/../../../../arm-none-eabi/lib/thumb/v7e-m+fp/hard\libc_nano.a(lib_a-nano-vfprintf.o)
 .text          0x08010800        0x0 d:/toolchain/gcc-arm-none-eabi/bin/../lib/gcc/arm-none-eabi/9.2.1/../../../../arm-none-eabi/lib/thumb/v7e-m+fp/hard\libc_nano.a(lib_a-rget.o)
 .text          0x08010800        0x0 d:/toolchain/gcc-arm-none-eabi/bin/../lib/gcc/arm-none-eabi/9.2.1/../../../../arm-none-eabi/lib/thumb/v7e-m+fp/hard\libc_nano.a(lib_a-s_nan.o)
 .text          0x08010800        0x0 d:/toolchain/gcc-arm-none-eabi/bin/../lib/gcc/arm-none-eabi/9.2.1/../../../../arm-none-eabi/lib/thumb/v7e-m+fp/hard\libc_nano.a(lib_a-stdio.o)
 .text          0x08010800        0x0 d:/toolchain/gcc-arm-none-eabi/bin/../lib/gcc/arm-none-eabi/9.2.1/../../../../arm-none-eabi/lib/thumb/v7e-m+fp/hard\libc_nano.a(lib_a-strncmp.o)
 .text          0x08010800        0x0 d:/toolchain/gcc-arm-none-eabi/bin/../lib/gcc/arm-none-eabi/9.2.1/../../../../arm-none-eabi/lib/thumb/v7e-m+fp/hard\libc_nano.a(lib_a-wbuf.o)
 .text          0x08010800        0x0 d:/toolchain/gcc-arm-none-eabi/bin/../lib/gcc/arm-none-eabi/9.2.1/../../../../arm-none-eabi/lib/thumb/v7e-m+fp/hard\libc_nano.a(lib_a-wctomb_r.o)
 .text          0x08010800        0x0 d:/toolchain/gcc-arm-none-eabi/bin/../lib/gcc/arm-none-eabi/9.2.1/../../../../arm-none-eabi/lib/thumb/v7e-m+fp/hard\libc_nano.a(lib_a-writer.o)
 .text          0x08010800        0x0 d:/toolchain/gcc-arm-none-eabi/bin/../lib/gcc/arm-none-eabi/9.2.1/../../../../arm-none-eabi/lib/thumb/v7e-m+fp/hard\libc_nano.a(lib_a-wsetup.o)
 .text          0x08010800        0x0 d:/toolchain/gcc-arm-none-eabi/bin/../lib/gcc/arm-none-eabi/9.2.1/../../../../arm-none-eabi/lib/thumb/v7e-m+fp/hard\libc_nano.a(lib_a-closer.o)
 .text          0x08010800        0x0 d:/toolchain/gcc-arm-none-eabi/bin/../lib/gcc/arm-none-eabi/9.2.1/../../../../arm-none-eabi/lib/thumb/v7e-m+fp/hard\libc_nano.a(lib_a-fstatr.o)
 .text          0x08010800        0x0 d:/toolchain/gcc-arm-none-eabi/bin/../lib/gcc/arm-none-eabi/9.2.1/../../../../arm-none-eabi/lib/thumb/v7e-m+fp/hard\libc_nano.a(lib_a-fvwrite.o)
 .text          0x08010800        0x0 d:/toolchain/gcc-arm-none-eabi/bin/../lib/gcc/arm-none-eabi/9.2.1/../../../../arm-none-eabi/lib/thumb/v7e-m+fp/hard\libc_nano.a(lib_a-isattyr.o)
 .text          0x08010800        0x0 d:/toolchain/gcc-arm-none-eabi/bin/../lib/gcc/arm-none-eabi/9.2.1/../../../../arm-none-eabi/lib/thumb/v7e-m+fp/hard\libc_nano.a(lib_a-lseekr.o)
 .text          0x08010800        0x0 d:/toolchain/gcc-arm-none-eabi/bin/../lib/gcc/arm-none-eabi/9.2.1/../../../../arm-none-eabi/lib/thumb/v7e-m+fp/hard\libc_nano.a(lib_a-memmove.o)
 .text          0x08010800        0x0 d:/toolchain/gcc-arm-none-eabi/bin/../lib/gcc/arm-none-eabi/9.2.1/../../../../arm-none-eabi/lib/thumb/v7e-m+fp/hard\libc_nano.a(lib_a-nano-reallocr.o)
 .text          0x08010800        0x0 d:/toolchain/gcc-arm-none-eabi/bin/../lib/gcc/arm-none-eabi/9.2.1/../../../../arm-none-eabi/lib/thumb/v7e-m+fp/hard\libc_nano.a(lib_a-readr.o)
 .text          0x08010800        0x0 d:/toolchain/gcc-arm-none-eabi/bin/../lib/gcc/arm-none-eabi/9.2.1/../../../../arm-none-eabi/lib/thumb/v7e-m+fp/hard\libc_nano.a(lib_a-refill.o)
 .text          0x08010800        0x0 d:/toolchain/gcc-arm-none-eabi/bin/../lib/gcc/arm-none-eabi/9.2.1/../../../../arm-none-eabi/lib/thumb/v7e-m+fp/hard\libc_nano.a(lib_a-nano-msizer.o)
 .text          0x08010800      0x254 d:/toolchain/gcc-arm-none-eabi/bin/../lib/gcc/arm-none-eabi/9.2.1/thumb/v7e-m+fp/hard\libgcc.a(_arm_muldf3.o)
 .text          0x08010a54      0x378 d:/toolchain/gcc-arm-none-eabi/bin/../lib/gcc/arm-none-eabi/9.2.1/thumb/v7e-m+fp/hard\libgcc.a(_arm_addsubdf3.o)
                0x08010a54                __aeabi_drsub
                0x08010a5c                __aeabi_dsub
                0x08010a5c                __subdf3
                0x08010a60                __aeabi_dadd
                0x08010a60                __adddf3
                0x08010cd8                __floatunsidf
                0x08010cd8                __aeabi_ui2d
                0x08010cf8                __floatsidf
                0x08010cf8                __aeabi_i2d
                0x08010d1c                __aeabi_f2d
                0x08010d1c                __extendsfdf2
                0x08010d60                __floatundidf
                0x08010d60                __aeabi_ul2d
                0x08010d70                __floatdidf
                0x08010d70                __aeabi_l2d
 .text          0x08010dcc      0x424 d:/toolchain/gcc-arm-none-eabi/bin/../lib/gcc/arm-none-eabi/9.2.1/thumb/v7e-m+fp/hard\libgcc.a(_arm_muldivdf3.o)
                0x08010dcc                __aeabi_dmul
                0x08010dcc                __muldf3
                0x08011020                __divdf3
                0x08011020                __aeabi_ddiv
 .text          0x080111f0      0x110 d:/toolchain/gcc-arm-none-eabi/bin/../lib/gcc/arm-none-eabi/9.2.1/thumb/v7e-m+fp/hard\libgcc.a(_arm_cmpdf2.o)
                0x080111f0                __gtdf2
                0x080111f0                __gedf2
                0x080111f8                __ltdf2
                0x080111f8                __ledf2
                0x08011200                __nedf2
                0x08011200                __eqdf2
                0x08011200                __cmpdf2
                0x0801127c                __aeabi_cdrcmple
                0x0801128c                __aeabi_cdcmpeq
                0x0801128c                __aeabi_cdcmple
                0x0801129c                __aeabi_dcmpeq
                0x080112b0                __aeabi_dcmplt
                0x080112c4                __aeabi_dcmple
                0x080112d8                __aeabi_dcmpge
                0x080112ec                __aeabi_dcmpgt
 .text          0x08011300       0x2c d:/toolchain/gcc-arm-none-eabi/bin/../lib/gcc/arm-none-eabi/9.2.1/thumb/v7e-m+fp/hard\libgcc.a(_arm_unorddf2.o)
                0x08011300                __unorddf2
                0x08011300                __aeabi_dcmpun
 .text          0x0801132c       0x50 d:/toolchain/gcc-arm-none-eabi/bin/../lib/gcc/arm-none-eabi/9.2.1/thumb/v7e-m+fp/hard\libgcc.a(_arm_fixdfsi.o)
                0x0801132c                __aeabi_d2iz
                0x0801132c                __fixdfsi
 .text          0x0801137c       0x40 d:/toolchain/gcc-arm-none-eabi/bin/../lib/gcc/arm-none-eabi/9.2.1/thumb/v7e-m+fp/hard\libgcc.a(_arm_fixunsdfsi.o)
                0x0801137c                __aeabi_d2uiz
                0x0801137c                __fixunsdfsi
 .text          0x080113bc       0xa0 d:/toolchain/gcc-arm-none-eabi/bin/../lib/gcc/arm-none-eabi/9.2.1/thumb/v7e-m+fp/hard\libgcc.a(_arm_truncdfsf2.o)
                0x080113bc                __truncdfsf2
                0x080113bc                __aeabi_d2f
 .text          0x0801145c       0x30 d:/toolchain/gcc-arm-none-eabi/bin/../lib/gcc/arm-none-eabi/9.2.1/thumb/v7e-m+fp/hard\libgcc.a(_fixdfdi.o)
                0x0801145c                __fixdfdi
                0x0801145c                __aeabi_d2lz
 .text          0x0801148c       0x3c d:/toolchain/gcc-arm-none-eabi/bin/../lib/gcc/arm-none-eabi/9.2.1/thumb/v7e-m+fp/hard\libgcc.a(_fixunsdfdi.o)
                0x0801148c                __fixunsdfdi
                0x0801148c                __aeabi_d2ulz
 .text          0x080114c8        0x0 d:/toolchain/gcc-arm-none-eabi/bin/../lib/gcc/arm-none-eabi/9.2.1/../../../../arm-none-eabi/lib/thumb/v7e-m+fp/hard\libnosys.a(close.o)
 .text          0x080114c8        0x0 d:/toolchain/gcc-arm-none-eabi/bin/../lib/gcc/arm-none-eabi/9.2.1/../../../../arm-none-eabi/lib/thumb/v7e-m+fp/hard\libnosys.a(fstat.o)
 .text          0x080114c8        0x0 d:/toolchain/gcc-arm-none-eabi/bin/../lib/gcc/arm-none-eabi/9.2.1/../../../../arm-none-eabi/lib/thumb/v7e-m+fp/hard\libnosys.a(isatty.o)
 .text          0x080114c8        0x0 d:/toolchain/gcc-arm-none-eabi/bin/../lib/gcc/arm-none-eabi/9.2.1/../../../../arm-none-eabi/lib/thumb/v7e-m+fp/hard\libnosys.a(lseek.o)
 .text          0x080114c8        0x0 d:/toolchain/gcc-arm-none-eabi/bin/../lib/gcc/arm-none-eabi/9.2.1/../../../../arm-none-eabi/lib/thumb/v7e-m+fp/hard\libnosys.a(_exit.o)
 .text          0x080114c8        0x0 d:/toolchain/gcc-arm-none-eabi/bin/../lib/gcc/arm-none-eabi/9.2.1/thumb/v7e-m+fp/hard/crtend.o
 .text          0x080114c8        0x0 d:/toolchain/gcc-arm-none-eabi/bin/../lib/gcc/arm-none-eabi/9.2.1/thumb/v7e-m+fp/hard/crtn.o
 *(.text*)
 .text.startup  0x080114c8       0xb4 build/main.o
                0x080114c8                main
 .text.Reset_Handler
                0x0801157c       0x50 build/startup_stm32f446xx.o
                0x0801157c                Reset_Handler
 .text.Default_Handler
                0x080115cc        0x2 build/startup_stm32f446xx.o
                0x080115cc                RTC_Alarm_IRQHandler
                0x080115cc                EXTI2_IRQHandler
                0x080115cc                TIM8_CC_IRQHandler
                0x080115cc                SPI4_IRQHandler
                0x080115cc                TIM1_CC_IRQHandler
                0x080115cc                DMA2_Stream5_IRQHandler
                0x080115cc                DMA1_Stream5_IRQHandler
                0x080115cc                PVD_IRQHandler
                0x080115cc                SDIO_IRQHandler
                0x080115cc                TAMP_STAMP_IRQHandler
                0x080115cc                CAN2_RX1_IRQHandler
                0x080115cc                EXTI3_IRQHandler
                0x080115cc                TIM8_TRG_COM_TIM14_IRQHandler
                0x080115cc                TIM1_UP_TIM10_IRQHandler
                0x080115cc                TIM8_UP_TIM13_IRQHandler
                0x080115cc                I2C3_ER_IRQHandler
                0x080115cc                FMPI2C1_Event_IRQHandler
                0x080115cc                EXTI0_IRQHandler
                0x080115cc                I2C2_EV_IRQHandler
                0x080115cc                DMA1_Stream2_IRQHandler
                0x080115cc                CAN1_RX0_IRQHandler
                0x080115cc                FPU_IRQHandler
                0x080115cc                OTG_HS_WKUP_IRQHandler
                0x080115cc                CAN2_SCE_IRQHandler
                0x080115cc                DMA2_Stream2_IRQHandler
                0x080115cc                SPI1_IRQHandler
                0x080115cc                TIM6_DAC_IRQHandler
                0x080115cc                TIM1_BRK_TIM9_IRQHandler
                0x080115cc                DCMI_IRQHandler
                0x080115cc                CAN2_RX0_IRQHandler
                0x080115cc                DMA2_Stream3_IRQHandler
                0x080115cc                SAI2_IRQHandler
                0x080115cc                USART6_IRQHandler
                0x080115cc                USART3_IRQHandler
                0x080115cc                CAN1_RX1_IRQHandler
                0x080115cc                UART5_IRQHandler
                0x080115cc                DMA2_Stream0_IRQHandler
                0x080115cc                TIM4_IRQHandler
                0x080115cc                QUADSPI_IRQHandler
                0x080115cc                I2C1_EV_IRQHandler
                0x080115cc                DMA1_Stream6_IRQHandler
                0x080115cc                DMA1_Stream1_IRQHandler
                0x080115cc                UART4_IRQHandler
                0x080115cc                TIM3_IRQHandler
                0x080115cc                RCC_IRQHandler
                0x080115cc                TIM8_BRK_TIM12_IRQHandler
                0x080115cc                Default_Handler
                0x080115cc                CEC_IRQHandler
                0x080115cc                EXTI15_10_IRQHandler
                0x080115cc                ADC_IRQHandler
                0x080115cc                DMA1_Stream7_IRQHandler
                0x080115cc                TIM7_IRQHandler
                0x080115cc                CAN2_TX_IRQHandler
                0x080115cc                TIM5_IRQHandler
                0x080115cc                DMA2_Stream7_IRQHandler
                0x080115cc                I2C3_EV_IRQHandler
                0x080115cc                RTC_WKUP_IRQHandler
                0x080115cc                SPDIF_RX_IRQHandler
                0x080115cc                SPI2_IRQHandler
                0x080115cc                OTG_HS_EP1_IN_IRQHandler
                0x080115cc                DMA1_Stream0_IRQHandler
                0x080115cc                CAN1_TX_IRQHandler
                0x080115cc                EXTI4_IRQHandler
                0x080115cc                OTG_HS_EP1_OUT_IRQHandler
                0x080115cc                WWDG_IRQHandler
                0x080115cc                TIM2_IRQHandler
                0x080115cc                OTG_FS_WKUP_IRQHandler
                0x080115cc                TIM1_TRG_COM_TIM11_IRQHandler
                0x080115cc                OTG_HS_IRQHandler
                0x080115cc                EXTI1_IRQHandler
                0x080115cc                I2C2_ER_IRQHandler
                0x080115cc                DMA2_Stream1_IRQHandler
                0x080115cc                CAN1_SCE_IRQHandler
                0x080115cc                FLASH_IRQHandler
                0x080115cc                DMA2_Stream4_IRQHandler
                0x080115cc                USART1_IRQHandler
                0x080115cc                OTG_FS_IRQHandler
                0x080115cc                SPI3_IRQHandler
                0x080115cc                DMA1_Stream4_IRQHandler
                0x080115cc                I2C1_ER_IRQHandler
                0x080115cc                FMC_IRQHandler
                0x080115cc                DMA2_Stream6_IRQHandler
                0x080115cc                SAI1_IRQHandler
                0x080115cc                DMA1_Stream3_IRQHandler
                0x080115cc                FMPI2C1_Error_IRQHandler
 .text.atoi     0x080115ce        0x8 d:/toolchain/gcc-arm-none-eabi/bin/../lib/gcc/arm-none-eabi/9.2.1/../../../../arm-none-eabi/lib/thumb/v7e-m+fp/hard\libc_nano.a(lib_a-atoi.o)
                0x080115ce                atoi
 .text._atoi_r  0x080115d6        0x8 d:/toolchain/gcc-arm-none-eabi/bin/../lib/gcc/arm-none-eabi/9.2.1/../../../../arm-none-eabi/lib/thumb/v7e-m+fp/hard\libc_nano.a(lib_a-atoi.o)
                0x080115d6                _atoi_r
 *fill*         0x080115de        0x2 
 .text.exit     0x080115e0       0x28 d:/toolchain/gcc-arm-none-eabi/bin/../lib/gcc/arm-none-eabi/9.2.1/../../../../arm-none-eabi/lib/thumb/v7e-m+fp/hard\libc_nano.a(lib_a-exit.o)
                0x080115e0                exit
 .text._getchar_r
                0x08011608       0x1a d:/toolchain/gcc-arm-none-eabi/bin/../lib/gcc/arm-none-eabi/9.2.1/../../../../arm-none-eabi/lib/thumb/v7e-m+fp/hard\libc_nano.a(lib_a-getchar.o)
                0x08011608                _getchar_r
 *fill*         0x08011622        0x2 
 .text.getchar  0x08011624       0x24 d:/toolchain/gcc-arm-none-eabi/bin/../lib/gcc/arm-none-eabi/9.2.1/../../../../arm-none-eabi/lib/thumb/v7e-m+fp/hard\libc_nano.a(lib_a-getchar.o)
                0x08011624                getchar
 .text.__libc_init_array
                0x08011648       0x48 d:/toolchain/gcc-arm-none-eabi/bin/../lib/gcc/arm-none-eabi/9.2.1/../../../../arm-none-eabi/lib/thumb/v7e-m+fp/hard\libc_nano.a(lib_a-init.o)
                0x08011648                __libc_init_array
 .text.malloc   0x08011690       0x10 d:/toolchain/gcc-arm-none-eabi/bin/../lib/gcc/arm-none-eabi/9.2.1/../../../../arm-none-eabi/lib/thumb/v7e-m+fp/hard\libc_nano.a(lib_a-malloc.o)
                0x08011690                malloc
 .text.free     0x080116a0       0x10 d:/toolchain/gcc-arm-none-eabi/bin/../lib/gcc/arm-none-eabi/9.2.1/../../../../arm-none-eabi/lib/thumb/v7e-m+fp/hard\libc_nano.a(lib_a-malloc.o)
                0x080116a0                free
 .text.memcpy   0x080116b0       0x1c d:/toolchain/gcc-arm-none-eabi/bin/../lib/gcc/arm-none-eabi/9.2.1/../../../../arm-none-eabi/lib/thumb/v7e-m+fp/hard\libc_nano.a(lib_a-memcpy-stub.o)
                0x080116b0                memcpy
 .text.memset   0x080116cc       0x10 d:/toolchain/gcc-arm-none-eabi/bin/../lib/gcc/arm-none-eabi/9.2.1/../../../../arm-none-eabi/lib/thumb/v7e-m+fp/hard\libc_nano.a(lib_a-memset.o)
                0x080116cc                memset
 .text.mallinfo
                0x080116dc       0x14 d:/toolchain/gcc-arm-none-eabi/bin/../lib/gcc/arm-none-eabi/9.2.1/../../../../arm-none-eabi/lib/thumb/v7e-m+fp/hard\libc_nano.a(lib_a-mstats.o)
                0x080116dc                mallinfo
 .text.malloc_stats
                0x080116f0        0xc d:/toolchain/gcc-arm-none-eabi/bin/../lib/gcc/arm-none-eabi/9.2.1/../../../../arm-none-eabi/lib/thumb/v7e-m+fp/hard\libc_nano.a(lib_a-mstats.o)
                0x080116f0                malloc_stats
 .text.mallopt  0x080116fc       0x10 d:/toolchain/gcc-arm-none-eabi/bin/../lib/gcc/arm-none-eabi/9.2.1/../../../../arm-none-eabi/lib/thumb/v7e-m+fp/hard\libc_nano.a(lib_a-mstats.o)
                0x080116fc                mallopt
 .text._mstats_r
                0x0801170c       0x2c d:/toolchain/gcc-arm-none-eabi/bin/../lib/gcc/arm-none-eabi/9.2.1/../../../../arm-none-eabi/lib/thumb/v7e-m+fp/hard\libc_nano.a(lib_a-mstats.o)
                0x0801170c                _mstats_r
 .text.mstats   0x08011738       0x10 d:/toolchain/gcc-arm-none-eabi/bin/../lib/gcc/arm-none-eabi/9.2.1/../../../../arm-none-eabi/lib/thumb/v7e-m+fp/hard\libc_nano.a(lib_a-mstats.o)
                0x08011738                mstats
 .text._free_r  0x08011748       0xa0 d:/toolchain/gcc-arm-none-eabi/bin/../lib/gcc/arm-none-eabi/9.2.1/../../../../arm-none-eabi/lib/thumb/v7e-m+fp/hard\libc_nano.a(lib_a-nano-freer.o)
                0x08011748                _free_r
 .text._mallinfo_r
                0x080117e8       0x68 d:/toolchain/gcc-arm-none-eabi/bin/../lib/gcc/arm-none-eabi/9.2.1/../../../../arm-none-eabi/lib/thumb/v7e-m+fp/hard\libc_nano.a(lib_a-nano-mallinfor.o)
                0x080117e8                _mallinfo_r
 .text._malloc_r
                0x08011850       0xb4 d:/toolchain/gcc-arm-none-eabi/bin/../lib/gcc/arm-none-eabi/9.2.1/../../../../arm-none-eabi/lib/thumb/v7e-m+fp/hard\libc_nano.a(lib_a-nano-mallocr.o)
                0x08011850                _malloc_r
 .text._mallopt_r
                0x08011904        0x4 d:/toolchain/gcc-arm-none-eabi/bin/../lib/gcc/arm-none-eabi/9.2.1/../../../../arm-none-eabi/lib/thumb/v7e-m+fp/hard\libc_nano.a(lib_a-nano-malloptr.o)
                0x08011904                _mallopt_r
 .text._malloc_stats_r
                0x08011908       0x50 d:/toolchain/gcc-arm-none-eabi/bin/../lib/gcc/arm-none-eabi/9.2.1/../../../../arm-none-eabi/lib/thumb/v7e-m+fp/hard\libc_nano.a(lib_a-nano-mallstatsr.o)
                0x08011908                _malloc_stats_r
 .text.__cvt    0x08011958       0xc4 d:/toolchain/gcc-arm-none-eabi/bin/../lib/gcc/arm-none-eabi/9.2.1/../../../../arm-none-eabi/lib/thumb/v7e-m+fp/hard\libc_nano.a(lib_a-nano-vfprintf_float.o)
                0x08011958                __cvt
 .text.__exponent
                0x08011a1c       0x7c d:/toolchain/gcc-arm-none-eabi/bin/../lib/gcc/arm-none-eabi/9.2.1/../../../../arm-none-eabi/lib/thumb/v7e-m+fp/hard\libc_nano.a(lib_a-nano-vfprintf_float.o)
                0x08011a1c                __exponent
 .text._printf_float
                0x08011a98      0x46c d:/toolchain/gcc-arm-none-eabi/bin/../lib/gcc/arm-none-eabi/9.2.1/../../../../arm-none-eabi/lib/thumb/v7e-m+fp/hard\libc_nano.a(lib_a-nano-vfprintf_float.o)
                0x08011a98                _printf_float
 .text._printf_common
                0x08011f04       0xda d:/toolchain/gcc-arm-none-eabi/bin/../lib/gcc/arm-none-eabi/9.2.1/../../../../arm-none-eabi/lib/thumb/v7e-m+fp/hard\libc_nano.a(lib_a-nano-vfprintf_i.o)
                0x08011f04                _printf_common
 *fill*         0x08011fde        0x2 
 .text._printf_i
                0x08011fe0      0x24c d:/toolchain/gcc-arm-none-eabi/bin/../lib/gcc/arm-none-eabi/9.2.1/../../../../arm-none-eabi/lib/thumb/v7e-m+fp/hard\libc_nano.a(lib_a-nano-vfprintf_i.o)
                0x08011fe0                _printf_i
 .text._scanf_float
                0x0801222c      0x420 d:/toolchain/gcc-arm-none-eabi/bin/../lib/gcc/arm-none-eabi/9.2.1/../../../../arm-none-eabi/lib/thumb/v7e-m+fp/hard\libc_nano.a(lib_a-nano-vfscanf_float.o)
                0x0801222c                _scanf_float
 .text._printf_r
                0x0801264c       0x28 d:/toolchain/gcc-arm-none-eabi/bin/../lib/gcc/arm-none-eabi/9.2.1/../../../../arm-none-eabi/lib/thumb/v7e-m+fp/hard\libc_nano.a(lib_a-printf.o)
                0x0801264c                _iprintf_r
                0x0801264c                _printf_r
 .text.printf   0x08012674       0x30 d:/toolchain/gcc-arm-none-eabi/bin/../lib/gcc/arm-none-eabi/9.2.1/../../../../arm-none-eabi/lib/thumb/v7e-m+fp/hard\libc_nano.a(lib_a-printf.o)
                0x08012674                iprintf
                0x08012674                printf
 .text.cleanup_glue
                0x080126a4       0x1a d:/toolchain/gcc-arm-none-eabi/bin/../lib/gcc/arm-none-eabi/9.2.1/../../../../arm-none-eabi/lib/thumb/v7e-m+fp/hard\libc_nano.a(lib_a-reent.o)
                0x080126a4                cleanup_glue
 *fill*         0x080126be        0x2 
 .text._reclaim_reent
                0x080126c0       0xb8 d:/toolchain/gcc-arm-none-eabi/bin/../lib/gcc/arm-none-eabi/9.2.1/../../../../arm-none-eabi/lib/thumb/v7e-m+fp/hard\libc_nano.a(lib_a-reent.o)
                0x080126c0                _reclaim_reent
 .text._sbrk_r  0x08012778       0x20 d:/toolchain/gcc-arm-none-eabi/bin/../lib/gcc/arm-none-eabi/9.2.1/../../../../arm-none-eabi/lib/thumb/v7e-m+fp/hard\libc_nano.a(lib_a-sbrkr.o)
                0x08012778                _sbrk_r
 .text.setvbuf  0x08012798      0x18c d:/toolchain/gcc-arm-none-eabi/bin/../lib/gcc/arm-none-eabi/9.2.1/../../../../arm-none-eabi/lib/thumb/v7e-m+fp/hard\libc_nano.a(lib_a-setvbuf.o)
                0x08012798                setvbuf
 .text.nanf     0x08012924        0xc d:/toolchain/gcc-arm-none-eabi/bin/../lib/gcc/arm-none-eabi/9.2.1/../../../../arm-none-eabi/lib/thumb/v7e-m+fp/hard\libc_nano.a(lib_a-sf_nan.o)
                0x08012924                nanf
 .text._sprintf_r
                0x08012930       0x38 d:/toolchain/gcc-arm-none-eabi/bin/../lib/gcc/arm-none-eabi/9.2.1/../../../../arm-none-eabi/lib/thumb/v7e-m+fp/hard\libc_nano.a(lib_a-sprintf.o)
                0x08012930                _sprintf_r
                0x08012930                _siprintf_r
 .text.sprintf  0x08012968       0x40 d:/toolchain/gcc-arm-none-eabi/bin/../lib/gcc/arm-none-eabi/9.2.1/../../../../arm-none-eabi/lib/thumb/v7e-m+fp/hard\libc_nano.a(lib_a-sprintf.o)
                0x08012968                siprintf
                0x08012968                sprintf
 .text.sulp     0x080129a8       0x38 d:/toolchain/gcc-arm-none-eabi/bin/../lib/gcc/arm-none-eabi/9.2.1/../../../../arm-none-eabi/lib/thumb/v7e-m+fp/hard\libc_nano.a(lib_a-strtod.o)
 .text._strtod_l
                0x080129e0      0xc14 d:/toolchain/gcc-arm-none-eabi/bin/../lib/gcc/arm-none-eabi/9.2.1/../../../../arm-none-eabi/lib/thumb/v7e-m+fp/hard\libc_nano.a(lib_a-strtod.o)
                0x080129e0                _strtod_l
 .text._strtod_r
                0x080135f4        0xc d:/toolchain/gcc-arm-none-eabi/bin/../lib/gcc/arm-none-eabi/9.2.1/../../../../arm-none-eabi/lib/thumb/v7e-m+fp/hard\libc_nano.a(lib_a-strtod.o)
                0x080135f4                _strtod_r
 .text.strtod_l
                0x08013600       0x14 d:/toolchain/gcc-arm-none-eabi/bin/../lib/gcc/arm-none-eabi/9.2.1/../../../../arm-none-eabi/lib/thumb/v7e-m+fp/hard\libc_nano.a(lib_a-strtod.o)
                0x08013600                strtod_l
 .text.strtod   0x08013614       0x18 d:/toolchain/gcc-arm-none-eabi/bin/../lib/gcc/arm-none-eabi/9.2.1/../../../../arm-none-eabi/lib/thumb/v7e-m+fp/hard\libc_nano.a(lib_a-strtod.o)
                0x08013614                strtod
 .text.strtof_l
                0x0801362c       0xb0 d:/toolchain/gcc-arm-none-eabi/bin/../lib/gcc/arm-none-eabi/9.2.1/../../../../arm-none-eabi/lib/thumb/v7e-m+fp/hard\libc_nano.a(lib_a-strtod.o)
                0x0801362c                strtof_l
 .text.strtof   0x080136dc       0xb4 d:/toolchain/gcc-arm-none-eabi/bin/../lib/gcc/arm-none-eabi/9.2.1/../../../../arm-none-eabi/lib/thumb/v7e-m+fp/hard\libc_nano.a(lib_a-strtod.o)
                0x080136dc                strtof
 .text._strtol_l.isra.0
                0x08013790       0xf4 d:/toolchain/gcc-arm-none-eabi/bin/../lib/gcc/arm-none-eabi/9.2.1/../../../../arm-none-eabi/lib/thumb/v7e-m+fp/hard\libc_nano.a(lib_a-strtol.o)
 .text._strtol_r
                0x08013884        0x4 d:/toolchain/gcc-arm-none-eabi/bin/../lib/gcc/arm-none-eabi/9.2.1/../../../../arm-none-eabi/lib/thumb/v7e-m+fp/hard\libc_nano.a(lib_a-strtol.o)
                0x08013884                _strtol_r
 .text.strtol_l
                0x08013888       0x14 d:/toolchain/gcc-arm-none-eabi/bin/../lib/gcc/arm-none-eabi/9.2.1/../../../../arm-none-eabi/lib/thumb/v7e-m+fp/hard\libc_nano.a(lib_a-strtol.o)
                0x08013888                strtol_l
 .text.strtol   0x0801389c       0x14 d:/toolchain/gcc-arm-none-eabi/bin/../lib/gcc/arm-none-eabi/9.2.1/../../../../arm-none-eabi/lib/thumb/v7e-m+fp/hard\libc_nano.a(lib_a-strtol.o)
                0x0801389c                strtol
 .text.vprintf  0x080138b0       0x30 d:/toolchain/gcc-arm-none-eabi/bin/../lib/gcc/arm-none-eabi/9.2.1/../../../../arm-none-eabi/lib/thumb/v7e-m+fp/hard\libc_nano.a(lib_a-vprintf.o)
                0x080138b0                viprintf
                0x080138b0                vprintf
 .text._vprintf_r
                0x080138e0       0x26 d:/toolchain/gcc-arm-none-eabi/bin/../lib/gcc/arm-none-eabi/9.2.1/../../../../arm-none-eabi/lib/thumb/v7e-m+fp/hard\libc_nano.a(lib_a-vprintf.o)
                0x080138e0                _vprintf_r
                0x080138e0                _viprintf_r
 .text.quorem   0x08013906      0x116 d:/toolchain/gcc-arm-none-eabi/bin/../lib/gcc/arm-none-eabi/9.2.1/../../../../arm-none-eabi/lib/thumb/v7e-m+fp/hard\libc_nano.a(lib_a-dtoa.o)
 *fill*         0x08013a1c        0x4 
 .text._dtoa_r  0x08013a20      0xbbc d:/toolchain/gcc-arm-none-eabi/bin/../lib/gcc/arm-none-eabi/9.2.1/../../../../arm-none-eabi/lib/thumb/v7e-m+fp/hard\libc_nano.a(lib_a-dtoa.o)
                0x08013a20                _dtoa_r
 .text.__sflush_r
                0x080145dc      0x10c d:/toolchain/gcc-arm-none-eabi/bin/../lib/gcc/arm-none-eabi/9.2.1/../../../../arm-none-eabi/lib/thumb/v7e-m+fp/hard\libc_nano.a(lib_a-fflush.o)
                0x080145dc                __sflush_r
 .text._fflush_r
                0x080146e8       0x78 d:/toolchain/gcc-arm-none-eabi/bin/../lib/gcc/arm-none-eabi/9.2.1/../../../../arm-none-eabi/lib/thumb/v7e-m+fp/hard\libc_nano.a(lib_a-fflush.o)
                0x080146e8                _fflush_r
 .text.fflush   0x08014760       0x24 d:/toolchain/gcc-arm-none-eabi/bin/../lib/gcc/arm-none-eabi/9.2.1/../../../../arm-none-eabi/lib/thumb/v7e-m+fp/hard\libc_nano.a(lib_a-fflush.o)
                0x08014760                fflush
 .text.std      0x08014784       0x48 d:/toolchain/gcc-arm-none-eabi/bin/../lib/gcc/arm-none-eabi/9.2.1/../../../../arm-none-eabi/lib/thumb/v7e-m+fp/hard\libc_nano.a(lib_a-findfp.o)
 .text._cleanup_r
                0x080147cc        0xc d:/toolchain/gcc-arm-none-eabi/bin/../lib/gcc/arm-none-eabi/9.2.1/../../../../arm-none-eabi/lib/thumb/v7e-m+fp/hard\libc_nano.a(lib_a-findfp.o)
                0x080147cc                _cleanup_r
 .text.__fp_lock
                0x080147d8       0x18 d:/toolchain/gcc-arm-none-eabi/bin/../lib/gcc/arm-none-eabi/9.2.1/../../../../arm-none-eabi/lib/thumb/v7e-m+fp/hard\libc_nano.a(lib_a-findfp.o)
 .text.__fp_unlock
                0x080147f0       0x18 d:/toolchain/gcc-arm-none-eabi/bin/../lib/gcc/arm-none-eabi/9.2.1/../../../../arm-none-eabi/lib/thumb/v7e-m+fp/hard\libc_nano.a(lib_a-findfp.o)
 .text.__sfmoreglue
                0x08014808       0x2c d:/toolchain/gcc-arm-none-eabi/bin/../lib/gcc/arm-none-eabi/9.2.1/../../../../arm-none-eabi/lib/thumb/v7e-m+fp/hard\libc_nano.a(lib_a-findfp.o)
                0x08014808                __sfmoreglue
 .text._cleanup
                0x08014834        0xc d:/toolchain/gcc-arm-none-eabi/bin/../lib/gcc/arm-none-eabi/9.2.1/../../../../arm-none-eabi/lib/thumb/v7e-m+fp/hard\libc_nano.a(lib_a-findfp.o)
                0x08014834                _cleanup
 .text.__sfp_lock_acquire
                0x08014840        0xc d:/toolchain/gcc-arm-none-eabi/bin/../lib/gcc/arm-none-eabi/9.2.1/../../../../arm-none-eabi/lib/thumb/v7e-m+fp/hard\libc_nano.a(lib_a-findfp.o)
                0x08014840                __sfp_lock_acquire
 .text.__sfp_lock_release
                0x0801484c        0xc d:/toolchain/gcc-arm-none-eabi/bin/../lib/gcc/arm-none-eabi/9.2.1/../../../../arm-none-eabi/lib/thumb/v7e-m+fp/hard\libc_nano.a(lib_a-findfp.o)
                0x0801484c                __sfp_lock_release
 .text.__sinit_lock_acquire
                0x08014858        0xc d:/toolchain/gcc-arm-none-eabi/bin/../lib/gcc/arm-none-eabi/9.2.1/../../../../arm-none-eabi/lib/thumb/v7e-m+fp/hard\libc_nano.a(lib_a-findfp.o)
                0x08014858                __sinit_lock_acquire
 .text.__sinit_lock_release
                0x08014864        0xc d:/toolchain/gcc-arm-none-eabi/bin/../lib/gcc/arm-none-eabi/9.2.1/../../../../arm-none-eabi/lib/thumb/v7e-m+fp/hard\libc_nano.a(lib_a-findfp.o)
                0x08014864                __sinit_lock_release
 .text.__sinit  0x08014870       0x70 d:/toolchain/gcc-arm-none-eabi/bin/../lib/gcc/arm-none-eabi/9.2.1/../../../../arm-none-eabi/lib/thumb/v7e-m+fp/hard\libc_nano.a(lib_a-findfp.o)
                0x08014870                __sinit
 .text.__sfp    0x080148e0       0x8c d:/toolchain/gcc-arm-none-eabi/bin/../lib/gcc/arm-none-eabi/9.2.1/../../../../arm-none-eabi/lib/thumb/v7e-m+fp/hard\libc_nano.a(lib_a-findfp.o)
                0x080148e0                __sfp
 .text.__fp_lock_all
                0x0801496c       0x1c d:/toolchain/gcc-arm-none-eabi/bin/../lib/gcc/arm-none-eabi/9.2.1/../../../../arm-none-eabi/lib/thumb/v7e-m+fp/hard\libc_nano.a(lib_a-findfp.o)
                0x0801496c                __fp_lock_all
 .text.__fp_unlock_all
                0x08014988       0x1c d:/toolchain/gcc-arm-none-eabi/bin/../lib/gcc/arm-none-eabi/9.2.1/../../../../arm-none-eabi/lib/thumb/v7e-m+fp/hard\libc_nano.a(lib_a-findfp.o)
                0x08014988                __fp_unlock_all
 .text._fprintf_r
                0x080149a4       0x1a d:/toolchain/gcc-arm-none-eabi/bin/../lib/gcc/arm-none-eabi/9.2.1/../../../../arm-none-eabi/lib/thumb/v7e-m+fp/hard\libc_nano.a(lib_a-fprintf.o)
                0x080149a4                _fiprintf_r
                0x080149a4                _fprintf_r
 *fill*         0x080149be        0x2 
 .text.fprintf  0x080149c0       0x24 d:/toolchain/gcc-arm-none-eabi/bin/../lib/gcc/arm-none-eabi/9.2.1/../../../../arm-none-eabi/lib/thumb/v7e-m+fp/hard\libc_nano.a(lib_a-fprintf.o)
                0x080149c0                fiprintf
                0x080149c0                fprintf
 .text._fwalk   0x080149e4       0x3a d:/toolchain/gcc-arm-none-eabi/bin/../lib/gcc/arm-none-eabi/9.2.1/../../../../arm-none-eabi/lib/thumb/v7e-m+fp/hard\libc_nano.a(lib_a-fwalk.o)
                0x080149e4                _fwalk
 .text._fwalk_reent
                0x08014a1e       0x3e d:/toolchain/gcc-arm-none-eabi/bin/../lib/gcc/arm-none-eabi/9.2.1/../../../../arm-none-eabi/lib/thumb/v7e-m+fp/hard\libc_nano.a(lib_a-fwalk.o)
                0x08014a1e                _fwalk_reent
 .text.rshift   0x08014a5c       0xa4 d:/toolchain/gcc-arm-none-eabi/bin/../lib/gcc/arm-none-eabi/9.2.1/../../../../arm-none-eabi/lib/thumb/v7e-m+fp/hard\libc_nano.a(lib_a-gdtoa-gethex.o)
 .text.__hexdig_fun
                0x08014b00       0x2a d:/toolchain/gcc-arm-none-eabi/bin/../lib/gcc/arm-none-eabi/9.2.1/../../../../arm-none-eabi/lib/thumb/v7e-m+fp/hard\libc_nano.a(lib_a-gdtoa-gethex.o)
                0x08014b00                __hexdig_fun
 *fill*         0x08014b2a        0x2 
 .text.__gethex
                0x08014b2c      0x468 d:/toolchain/gcc-arm-none-eabi/bin/../lib/gcc/arm-none-eabi/9.2.1/../../../../arm-none-eabi/lib/thumb/v7e-m+fp/hard\libc_nano.a(lib_a-gdtoa-gethex.o)
                0x08014b2c                __gethex
 .text.L_shift  0x08014f94       0x24 d:/toolchain/gcc-arm-none-eabi/bin/../lib/gcc/arm-none-eabi/9.2.1/../../../../arm-none-eabi/lib/thumb/v7e-m+fp/hard\libc_nano.a(lib_a-gdtoa-hexnan.o)
 .text.__match  0x08014fb8       0x28 d:/toolchain/gcc-arm-none-eabi/bin/../lib/gcc/arm-none-eabi/9.2.1/../../../../arm-none-eabi/lib/thumb/v7e-m+fp/hard\libc_nano.a(lib_a-gdtoa-hexnan.o)
                0x08014fb8                __match
 .text.__hexnan
                0x08014fe0      0x138 d:/toolchain/gcc-arm-none-eabi/bin/../lib/gcc/arm-none-eabi/9.2.1/../../../../arm-none-eabi/lib/thumb/v7e-m+fp/hard\libc_nano.a(lib_a-gdtoa-hexnan.o)
                0x08014fe0                __hexnan
 .text._getc_r  0x08015118       0x80 d:/toolchain/gcc-arm-none-eabi/bin/../lib/gcc/arm-none-eabi/9.2.1/../../../../arm-none-eabi/lib/thumb/v7e-m+fp/hard\libc_nano.a(lib_a-getc.o)
                0x08015118                _getc_r
 .text.getc     0x08015198       0x88 d:/toolchain/gcc-arm-none-eabi/bin/../lib/gcc/arm-none-eabi/9.2.1/../../../../arm-none-eabi/lib/thumb/v7e-m+fp/hard\libc_nano.a(lib_a-getc.o)
                0x08015198                getc
 .text.__numeric_load_locale
                0x08015220        0x4 d:/toolchain/gcc-arm-none-eabi/bin/../lib/gcc/arm-none-eabi/9.2.1/../../../../arm-none-eabi/lib/thumb/v7e-m+fp/hard\libc_nano.a(lib_a-lnumeric.o)
                0x08015220                __numeric_load_locale
 .text._setlocale_r
                0x08015224       0x40 d:/toolchain/gcc-arm-none-eabi/bin/../lib/gcc/arm-none-eabi/9.2.1/../../../../arm-none-eabi/lib/thumb/v7e-m+fp/hard\libc_nano.a(lib_a-locale.o)
                0x08015224                _setlocale_r
 .text.__locale_mb_cur_max
                0x08015264        0xc d:/toolchain/gcc-arm-none-eabi/bin/../lib/gcc/arm-none-eabi/9.2.1/../../../../arm-none-eabi/lib/thumb/v7e-m+fp/hard\libc_nano.a(lib_a-locale.o)
                0x08015264                __locale_mb_cur_max
 .text.setlocale
                0x08015270       0x10 d:/toolchain/gcc-arm-none-eabi/bin/../lib/gcc/arm-none-eabi/9.2.1/../../../../arm-none-eabi/lib/thumb/v7e-m+fp/hard\libc_nano.a(lib_a-locale.o)
                0x08015270                setlocale
 .text.__localeconv_l
                0x08015280        0x4 d:/toolchain/gcc-arm-none-eabi/bin/../lib/gcc/arm-none-eabi/9.2.1/../../../../arm-none-eabi/lib/thumb/v7e-m+fp/hard\libc_nano.a(lib_a-localeconv.o)
                0x08015280                __localeconv_l
 .text._localeconv_r
                0x08015284        0x8 d:/toolchain/gcc-arm-none-eabi/bin/../lib/gcc/arm-none-eabi/9.2.1/../../../../arm-none-eabi/lib/thumb/v7e-m+fp/hard\libc_nano.a(lib_a-localeconv.o)
                0x08015284                _localeconv_r
 .text.localeconv
                0x0801528c        0x8 d:/toolchain/gcc-arm-none-eabi/bin/../lib/gcc/arm-none-eabi/9.2.1/../../../../arm-none-eabi/lib/thumb/v7e-m+fp/hard\libc_nano.a(lib_a-localeconv.o)
                0x0801528c                localeconv
 .text.__retarget_lock_init
                0x08015294        0x2 d:/toolchain/gcc-arm-none-eabi/bin/../lib/gcc/arm-none-eabi/9.2.1/../../../../arm-none-eabi/lib/thumb/v7e-m+fp/hard\libc_nano.a(lib_a-lock.o)
                0x08015294                __retarget_lock_init
 .text.__retarget_lock_init_recursive
                0x08015296        0x2 d:/toolchain/gcc-arm-none-eabi/bin/../lib/gcc/arm-none-eabi/9.2.1/../../../../arm-none-eabi/lib/thumb/v7e-m+fp/hard\libc_nano.a(lib_a-lock.o)
                0x08015296                __retarget_lock_init_recursive
 .text.__retarget_lock_close
                0x08015298        0x2 d:/toolchain/gcc-arm-none-eabi/bin/../lib/gcc/arm-none-eabi/9.2.1/../../../../arm-none-eabi/lib/thumb/v7e-m+fp/hard\libc_nano.a(lib_a-lock.o)
                0x08015298                __retarget_lock_close
 .text.__retarget_lock_close_recursive
                0x0801529a        0x2 d:/toolchain/gcc-arm-none-eabi/bin/../lib/gcc/arm-none-eabi/9.2.1/../../../../arm-none-eabi/lib/thumb/v7e-m+fp/hard\libc_nano.a(lib_a-lock.o)
                0x0801529a                __retarget_lock_close_recursive
 .text.__retarget_lock_acquire
                0x0801529c        0x2 d:/toolchain/gcc-arm-none-eabi/bin/../lib/gcc/arm-none-eabi/9.2.1/../../../../arm-none-eabi/lib/thumb/v7e-m+fp/hard\libc_nano.a(lib_a-lock.o)
                0x0801529c                __retarget_lock_acquire
 .text.__retarget_lock_acquire_recursive
                0x0801529e        0x2 d:/toolchain/gcc-arm-none-eabi/bin/../lib/gcc/arm-none-eabi/9.2.1/../../../../arm-none-eabi/lib/thumb/v7e-m+fp/hard\libc_nano.a(lib_a-lock.o)
                0x0801529e                __retarget_lock_acquire_recursive
 .text.__retarget_lock_try_acquire
                0x080152a0        0x4 d:/toolchain/gcc-arm-none-eabi/bin/../lib/gcc/arm-none-eabi/9.2.1/../../../../arm-none-eabi/lib/thumb/v7e-m+fp/hard\libc_nano.a(lib_a-lock.o)
                0x080152a0                __retarget_lock_try_acquire
 .text.__retarget_lock_try_acquire_recursive
                0x080152a4        0x4 d:/toolchain/gcc-arm-none-eabi/bin/../lib/gcc/arm-none-eabi/9.2.1/../../../../arm-none-eabi/lib/thumb/v7e-m+fp/hard\libc_nano.a(lib_a-lock.o)
                0x080152a4                __retarget_lock_try_acquire_recursive
 .text.__retarget_lock_release
                0x080152a8        0x2 d:/toolchain/gcc-arm-none-eabi/bin/../lib/gcc/arm-none-eabi/9.2.1/../../../../arm-none-eabi/lib/thumb/v7e-m+fp/hard\libc_nano.a(lib_a-lock.o)
                0x080152a8                __retarget_lock_release
 .text.__retarget_lock_release_recursive
                0x080152aa        0x2 d:/toolchain/gcc-arm-none-eabi/bin/../lib/gcc/arm-none-eabi/9.2.1/../../../../arm-none-eabi/lib/thumb/v7e-m+fp/hard\libc_nano.a(lib_a-lock.o)
                0x080152aa                __retarget_lock_release_recursive
 .text.__swhatbuf_r
                0x080152ac       0x48 d:/toolchain/gcc-arm-none-eabi/bin/../lib/gcc/arm-none-eabi/9.2.1/../../../../arm-none-eabi/lib/thumb/v7e-m+fp/hard\libc_nano.a(lib_a-makebuf.o)
                0x080152ac                __swhatbuf_r
 .text.__smakebuf_r
                0x080152f4       0x80 d:/toolchain/gcc-arm-none-eabi/bin/../lib/gcc/arm-none-eabi/9.2.1/../../../../arm-none-eabi/lib/thumb/v7e-m+fp/hard\libc_nano.a(lib_a-makebuf.o)
                0x080152f4                __smakebuf_r
 .text._mbtowc_r
                0x08015374       0x14 d:/toolchain/gcc-arm-none-eabi/bin/../lib/gcc/arm-none-eabi/9.2.1/../../../../arm-none-eabi/lib/thumb/v7e-m+fp/hard\libc_nano.a(lib_a-mbtowc_r.o)
                0x08015374                _mbtowc_r
 .text.__ascii_mbtowc
                0x08015388       0x24 d:/toolchain/gcc-arm-none-eabi/bin/../lib/gcc/arm-none-eabi/9.2.1/../../../../arm-none-eabi/lib/thumb/v7e-m+fp/hard\libc_nano.a(lib_a-mbtowc_r.o)
                0x08015388                __ascii_mbtowc
 .text._Balloc  0x080153ac       0x68 d:/toolchain/gcc-arm-none-eabi/bin/../lib/gcc/arm-none-eabi/9.2.1/../../../../arm-none-eabi/lib/thumb/v7e-m+fp/hard\libc_nano.a(lib_a-mprec.o)
                0x080153ac                _Balloc
 .text._Bfree   0x08015414       0x2e d:/toolchain/gcc-arm-none-eabi/bin/../lib/gcc/arm-none-eabi/9.2.1/../../../../arm-none-eabi/lib/thumb/v7e-m+fp/hard\libc_nano.a(lib_a-mprec.o)
                0x08015414                _Bfree
 .text.__multadd
                0x08015442       0x7c d:/toolchain/gcc-arm-none-eabi/bin/../lib/gcc/arm-none-eabi/9.2.1/../../../../arm-none-eabi/lib/thumb/v7e-m+fp/hard\libc_nano.a(lib_a-mprec.o)
                0x08015442                __multadd
 .text.__s2b    0x080154be       0x7c d:/toolchain/gcc-arm-none-eabi/bin/../lib/gcc/arm-none-eabi/9.2.1/../../../../arm-none-eabi/lib/thumb/v7e-m+fp/hard\libc_nano.a(lib_a-mprec.o)
                0x080154be                __s2b
 .text.__hi0bits
                0x0801553a       0x40 d:/toolchain/gcc-arm-none-eabi/bin/../lib/gcc/arm-none-eabi/9.2.1/../../../../arm-none-eabi/lib/thumb/v7e-m+fp/hard\libc_nano.a(lib_a-mprec.o)
                0x0801553a                __hi0bits
 .text.__lo0bits
                0x0801557a       0x60 d:/toolchain/gcc-arm-none-eabi/bin/../lib/gcc/arm-none-eabi/9.2.1/../../../../arm-none-eabi/lib/thumb/v7e-m+fp/hard\libc_nano.a(lib_a-mprec.o)
                0x0801557a                __lo0bits
 .text.__i2b    0x080155da       0x12 d:/toolchain/gcc-arm-none-eabi/bin/../lib/gcc/arm-none-eabi/9.2.1/../../../../arm-none-eabi/lib/thumb/v7e-m+fp/hard\libc_nano.a(lib_a-mprec.o)
                0x080155da                __i2b
 .text.__multiply
                0x080155ec      0x138 d:/toolchain/gcc-arm-none-eabi/bin/../lib/gcc/arm-none-eabi/9.2.1/../../../../arm-none-eabi/lib/thumb/v7e-m+fp/hard\libc_nano.a(lib_a-mprec.o)
                0x080155ec                __multiply
 .text.__pow5mult
                0x08015724       0x9c d:/toolchain/gcc-arm-none-eabi/bin/../lib/gcc/arm-none-eabi/9.2.1/../../../../arm-none-eabi/lib/thumb/v7e-m+fp/hard\libc_nano.a(lib_a-mprec.o)
                0x08015724                __pow5mult
 .text.__lshift
                0x080157c0       0xbe d:/toolchain/gcc-arm-none-eabi/bin/../lib/gcc/arm-none-eabi/9.2.1/../../../../arm-none-eabi/lib/thumb/v7e-m+fp/hard\libc_nano.a(lib_a-mprec.o)
                0x080157c0                __lshift
 .text.__mcmp   0x0801587e       0x38 d:/toolchain/gcc-arm-none-eabi/bin/../lib/gcc/arm-none-eabi/9.2.1/../../../../arm-none-eabi/lib/thumb/v7e-m+fp/hard\libc_nano.a(lib_a-mprec.o)
                0x0801587e                __mcmp
 .text.__mdiff  0x080158b6       0xec d:/toolchain/gcc-arm-none-eabi/bin/../lib/gcc/arm-none-eabi/9.2.1/../../../../arm-none-eabi/lib/thumb/v7e-m+fp/hard\libc_nano.a(lib_a-mprec.o)
                0x080158b6                __mdiff
 *fill*         0x080159a2        0x2 
 .text.__ulp    0x080159a4       0x58 d:/toolchain/gcc-arm-none-eabi/bin/../lib/gcc/arm-none-eabi/9.2.1/../../../../arm-none-eabi/lib/thumb/v7e-m+fp/hard\libc_nano.a(lib_a-mprec.o)
                0x080159a4                __ulp
 .text.__b2d    0x080159fc       0xa0 d:/toolchain/gcc-arm-none-eabi/bin/../lib/gcc/arm-none-eabi/9.2.1/../../../../arm-none-eabi/lib/thumb/v7e-m+fp/hard\libc_nano.a(lib_a-mprec.o)
                0x080159fc                __b2d
 .text.__d2b    0x08015a9c       0xa0 d:/toolchain/gcc-arm-none-eabi/bin/../lib/gcc/arm-none-eabi/9.2.1/../../../../arm-none-eabi/lib/thumb/v7e-m+fp/hard\libc_nano.a(lib_a-mprec.o)
                0x08015a9c                __d2b
 .text.__ratio  0x08015b3c       0x66 d:/toolchain/gcc-arm-none-eabi/bin/../lib/gcc/arm-none-eabi/9.2.1/../../../../arm-none-eabi/lib/thumb/v7e-m+fp/hard\libc_nano.a(lib_a-mprec.o)
                0x08015b3c                __ratio
 *fill*         0x08015ba2        0x2 
 .text._mprec_log10
                0x08015ba4       0x3c d:/toolchain/gcc-arm-none-eabi/bin/../lib/gcc/arm-none-eabi/9.2.1/../../../../arm-none-eabi/lib/thumb/v7e-m+fp/hard\libc_nano.a(lib_a-mprec.o)
                0x08015ba4                _mprec_log10
 .text.__copybits
                0x08015be0       0x46 d:/toolchain/gcc-arm-none-eabi/bin/../lib/gcc/arm-none-eabi/9.2.1/../../../../arm-none-eabi/lib/thumb/v7e-m+fp/hard\libc_nano.a(lib_a-mprec.o)
                0x08015be0                __copybits
 .text.__any_on
                0x08015c26       0x42 d:/toolchain/gcc-arm-none-eabi/bin/../lib/gcc/arm-none-eabi/9.2.1/../../../../arm-none-eabi/lib/thumb/v7e-m+fp/hard\libc_nano.a(lib_a-mprec.o)
                0x08015c26                __any_on
 .text._calloc_r
                0x08015c68       0x1e d:/toolchain/gcc-arm-none-eabi/bin/../lib/gcc/arm-none-eabi/9.2.1/../../../../arm-none-eabi/lib/thumb/v7e-m+fp/hard\libc_nano.a(lib_a-nano-callocr.o)
                0x08015c68                _calloc_r
 .text.__ssputs_r
                0x08015c86       0xb6 d:/toolchain/gcc-arm-none-eabi/bin/../lib/gcc/arm-none-eabi/9.2.1/../../../../arm-none-eabi/lib/thumb/v7e-m+fp/hard\libc_nano.a(lib_a-nano-svfprintf.o)
                0x08015c86                __ssputs_r
 .text.__ssprint_r
                0x08015d3c       0xf6 d:/toolchain/gcc-arm-none-eabi/bin/../lib/gcc/arm-none-eabi/9.2.1/../../../../arm-none-eabi/lib/thumb/v7e-m+fp/hard\libc_nano.a(lib_a-nano-svfprintf.o)
                0x08015d3c                __ssprint_r
 *fill*         0x08015e32        0x2 
 .text._svfprintf_r
                0x08015e34      0x200 d:/toolchain/gcc-arm-none-eabi/bin/../lib/gcc/arm-none-eabi/9.2.1/../../../../arm-none-eabi/lib/thumb/v7e-m+fp/hard\libc_nano.a(lib_a-nano-svfprintf.o)
                0x08015e34                _svfiprintf_r
                0x08015e34                _svfprintf_r
 .text.__sfputc_r
                0x08016034       0x2e d:/toolchain/gcc-arm-none-eabi/bin/../lib/gcc/arm-none-eabi/9.2.1/../../../../arm-none-eabi/lib/thumb/v7e-m+fp/hard\libc_nano.a(lib_a-nano-vfprintf.o)
 .text.__sfputs_r
                0x08016062       0x24 d:/toolchain/gcc-arm-none-eabi/bin/../lib/gcc/arm-none-eabi/9.2.1/../../../../arm-none-eabi/lib/thumb/v7e-m+fp/hard\libc_nano.a(lib_a-nano-vfprintf.o)
                0x08016062                __sfputs_r
 .text.__sprint_r
                0x08016086       0x1a d:/toolchain/gcc-arm-none-eabi/bin/../lib/gcc/arm-none-eabi/9.2.1/../../../../arm-none-eabi/lib/thumb/v7e-m+fp/hard\libc_nano.a(lib_a-nano-vfprintf.o)
                0x08016086                __sprint_r
 .text._vfprintf_r
                0x080160a0      0x260 d:/toolchain/gcc-arm-none-eabi/bin/../lib/gcc/arm-none-eabi/9.2.1/../../../../arm-none-eabi/lib/thumb/v7e-m+fp/hard\libc_nano.a(lib_a-nano-vfprintf.o)
                0x080160a0                _vfprintf_r
                0x080160a0                _vfiprintf_r
 .text.vfprintf
                0x08016300       0x14 d:/toolchain/gcc-arm-none-eabi/bin/../lib/gcc/arm-none-eabi/9.2.1/../../../../arm-none-eabi/lib/thumb/v7e-m+fp/hard\libc_nano.a(lib_a-nano-vfprintf.o)
                0x08016300                vfprintf
                0x08016300                vfiprintf
 .text.__srget_r
                0x08016314       0x58 d:/toolchain/gcc-arm-none-eabi/bin/../lib/gcc/arm-none-eabi/9.2.1/../../../../arm-none-eabi/lib/thumb/v7e-m+fp/hard\libc_nano.a(lib_a-rget.o)
                0x08016314                __srget_r
 .text.__srget  0x0801636c       0x10 d:/toolchain/gcc-arm-none-eabi/bin/../lib/gcc/arm-none-eabi/9.2.1/../../../../arm-none-eabi/lib/thumb/v7e-m+fp/hard\libc_nano.a(lib_a-rget.o)
                0x0801636c                __srget
 *fill*         0x0801637c        0x4 
 .text.nan      0x08016380       0x10 d:/toolchain/gcc-arm-none-eabi/bin/../lib/gcc/arm-none-eabi/9.2.1/../../../../arm-none-eabi/lib/thumb/v7e-m+fp/hard\libc_nano.a(lib_a-s_nan.o)
                0x08016380                nan
 .text.__sread  0x08016390       0x22 d:/toolchain/gcc-arm-none-eabi/bin/../lib/gcc/arm-none-eabi/9.2.1/../../../../arm-none-eabi/lib/thumb/v7e-m+fp/hard\libc_nano.a(lib_a-stdio.o)
                0x08016390                __sread
 .text.__seofread
                0x080163b2        0x4 d:/toolchain/gcc-arm-none-eabi/bin/../lib/gcc/arm-none-eabi/9.2.1/../../../../arm-none-eabi/lib/thumb/v7e-m+fp/hard\libc_nano.a(lib_a-stdio.o)
                0x080163b2                __seofread
 .text.__swrite
                0x080163b6       0x38 d:/toolchain/gcc-arm-none-eabi/bin/../lib/gcc/arm-none-eabi/9.2.1/../../../../arm-none-eabi/lib/thumb/v7e-m+fp/hard\libc_nano.a(lib_a-stdio.o)
                0x080163b6                __swrite
 .text.__sseek  0x080163ee       0x24 d:/toolchain/gcc-arm-none-eabi/bin/../lib/gcc/arm-none-eabi/9.2.1/../../../../arm-none-eabi/lib/thumb/v7e-m+fp/hard\libc_nano.a(lib_a-stdio.o)
                0x080163ee                __sseek
 .text.__sclose
                0x08016412        0x8 d:/toolchain/gcc-arm-none-eabi/bin/../lib/gcc/arm-none-eabi/9.2.1/../../../../arm-none-eabi/lib/thumb/v7e-m+fp/hard\libc_nano.a(lib_a-stdio.o)
                0x08016412                __sclose
 .text.strncmp  0x0801641a       0x24 d:/toolchain/gcc-arm-none-eabi/bin/../lib/gcc/arm-none-eabi/9.2.1/../../../../arm-none-eabi/lib/thumb/v7e-m+fp/hard\libc_nano.a(lib_a-strncmp.o)
                0x0801641a                strncmp
 *fill*         0x0801643e        0x2 
 .text.__swbuf_r
                0x08016440       0xa4 d:/toolchain/gcc-arm-none-eabi/bin/../lib/gcc/arm-none-eabi/9.2.1/../../../../arm-none-eabi/lib/thumb/v7e-m+fp/hard\libc_nano.a(lib_a-wbuf.o)
                0x08016440                __swbuf_r
 .text.__swbuf  0x080164e4       0x10 d:/toolchain/gcc-arm-none-eabi/bin/../lib/gcc/arm-none-eabi/9.2.1/../../../../arm-none-eabi/lib/thumb/v7e-m+fp/hard\libc_nano.a(lib_a-wbuf.o)
                0x080164e4                __swbuf
 .text._wctomb_r
                0x080164f4       0x14 d:/toolchain/gcc-arm-none-eabi/bin/../lib/gcc/arm-none-eabi/9.2.1/../../../../arm-none-eabi/lib/thumb/v7e-m+fp/hard\libc_nano.a(lib_a-wctomb_r.o)
                0x080164f4                _wctomb_r
 .text.__ascii_wctomb
                0x08016508       0x1a d:/toolchain/gcc-arm-none-eabi/bin/../lib/gcc/arm-none-eabi/9.2.1/../../../../arm-none-eabi/lib/thumb/v7e-m+fp/hard\libc_nano.a(lib_a-wctomb_r.o)
                0x08016508                __ascii_wctomb
 *fill*         0x08016522        0x2 
 .text._write_r
                0x08016524       0x24 d:/toolchain/gcc-arm-none-eabi/bin/../lib/gcc/arm-none-eabi/9.2.1/../../../../arm-none-eabi/lib/thumb/v7e-m+fp/hard\libc_nano.a(lib_a-writer.o)
                0x08016524                _write_r
 .text.__swsetup_r
                0x08016548       0xdc d:/toolchain/gcc-arm-none-eabi/bin/../lib/gcc/arm-none-eabi/9.2.1/../../../../arm-none-eabi/lib/thumb/v7e-m+fp/hard\libc_nano.a(lib_a-wsetup.o)
                0x08016548                __swsetup_r
 .text._close_r
                0x08016624       0x20 d:/toolchain/gcc-arm-none-eabi/bin/../lib/gcc/arm-none-eabi/9.2.1/../../../../arm-none-eabi/lib/thumb/v7e-m+fp/hard\libc_nano.a(lib_a-closer.o)
                0x08016624                _close_r
 .text._fstat_r
                0x08016644       0x24 d:/toolchain/gcc-arm-none-eabi/bin/../lib/gcc/arm-none-eabi/9.2.1/../../../../arm-none-eabi/lib/thumb/v7e-m+fp/hard\libc_nano.a(lib_a-fstatr.o)
                0x08016644                _fstat_r
 .text.__sfvwrite_r
                0x08016668      0x294 d:/toolchain/gcc-arm-none-eabi/bin/../lib/gcc/arm-none-eabi/9.2.1/../../../../arm-none-eabi/lib/thumb/v7e-m+fp/hard\libc_nano.a(lib_a-fvwrite.o)
                0x08016668                __sfvwrite_r
 .text._isatty_r
                0x080168fc       0x20 d:/toolchain/gcc-arm-none-eabi/bin/../lib/gcc/arm-none-eabi/9.2.1/../../../../arm-none-eabi/lib/thumb/v7e-m+fp/hard\libc_nano.a(lib_a-isattyr.o)
                0x080168fc                _isatty_r
 .text._lseek_r
                0x0801691c       0x24 d:/toolchain/gcc-arm-none-eabi/bin/../lib/gcc/arm-none-eabi/9.2.1/../../../../arm-none-eabi/lib/thumb/v7e-m+fp/hard\libc_nano.a(lib_a-lseekr.o)
                0x0801691c                _lseek_r
 .text.memmove  0x08016940       0x34 d:/toolchain/gcc-arm-none-eabi/bin/../lib/gcc/arm-none-eabi/9.2.1/../../../../arm-none-eabi/lib/thumb/v7e-m+fp/hard\libc_nano.a(lib_a-memmove.o)
                0x08016940                memmove
 .text._realloc_r
                0x08016974       0x4c d:/toolchain/gcc-arm-none-eabi/bin/../lib/gcc/arm-none-eabi/9.2.1/../../../../arm-none-eabi/lib/thumb/v7e-m+fp/hard\libc_nano.a(lib_a-nano-reallocr.o)
                0x08016974                _realloc_r
 .text._read_r  0x080169c0       0x24 d:/toolchain/gcc-arm-none-eabi/bin/../lib/gcc/arm-none-eabi/9.2.1/../../../../arm-none-eabi/lib/thumb/v7e-m+fp/hard\libc_nano.a(lib_a-readr.o)
                0x080169c0                _read_r
 .text.lflush   0x080169e4       0x12 d:/toolchain/gcc-arm-none-eabi/bin/../lib/gcc/arm-none-eabi/9.2.1/../../../../arm-none-eabi/lib/thumb/v7e-m+fp/hard\libc_nano.a(lib_a-refill.o)
 *fill*         0x080169f6        0x2 
 .text.__srefill_r
                0x080169f8      0x114 d:/toolchain/gcc-arm-none-eabi/bin/../lib/gcc/arm-none-eabi/9.2.1/../../../../arm-none-eabi/lib/thumb/v7e-m+fp/hard\libc_nano.a(lib_a-refill.o)
                0x080169f8                __srefill_r
 .text._malloc_usable_size_r
                0x08016b0c       0x10 d:/toolchain/gcc-arm-none-eabi/bin/../lib/gcc/arm-none-eabi/9.2.1/../../../../arm-none-eabi/lib/thumb/v7e-m+fp/hard\libc_nano.a(lib_a-nano-msizer.o)
                0x08016b0c                _malloc_usable_size_r
 .text._close   0x08016b1c       0x10 d:/toolchain/gcc-arm-none-eabi/bin/../lib/gcc/arm-none-eabi/9.2.1/../../../../arm-none-eabi/lib/thumb/v7e-m+fp/hard\libnosys.a(close.o)
                0x08016b1c                _close
 .text._fstat   0x08016b2c       0x10 d:/toolchain/gcc-arm-none-eabi/bin/../lib/gcc/arm-none-eabi/9.2.1/../../../../arm-none-eabi/lib/thumb/v7e-m+fp/hard\libnosys.a(fstat.o)
                0x08016b2c                _fstat
 .text._isatty  0x08016b3c       0x10 d:/toolchain/gcc-arm-none-eabi/bin/../lib/gcc/arm-none-eabi/9.2.1/../../../../arm-none-eabi/lib/thumb/v7e-m+fp/hard\libnosys.a(isatty.o)
                0x08016b3c                _isatty
 .text._lseek   0x08016b4c       0x10 d:/toolchain/gcc-arm-none-eabi/bin/../lib/gcc/arm-none-eabi/9.2.1/../../../../arm-none-eabi/lib/thumb/v7e-m+fp/hard\libnosys.a(lseek.o)
                0x08016b4c                _lseek
 .text._exit    0x08016b5c        0x4 d:/toolchain/gcc-arm-none-eabi/bin/../lib/gcc/arm-none-eabi/9.2.1/../../../../arm-none-eabi/lib/thumb/v7e-m+fp/hard\libnosys.a(_exit.o)
                0x08016b5c                _exit
 *(.glue_7)
 .glue_7        0x08016b60        0x0 linker stubs
 *(.glue_7t)
 .glue_7t       0x08016b60        0x0 linker stubs
 *(.eh_frame)
 .eh_frame      0x08016b60        0x0 d:/toolchain/gcc-arm-none-eabi/bin/../lib/gcc/arm-none-eabi/9.2.1/thumb/v7e-m+fp/hard/crtbegin.o
 .eh_frame      0x08016b60        0x4 d:/toolchain/gcc-arm-none-eabi/bin/../lib/gcc/arm-none-eabi/9.2.1/thumb/v7e-m+fp/hard/crtend.o
 *(.init)
 .init          0x08016b64        0x4 d:/toolchain/gcc-arm-none-eabi/bin/../lib/gcc/arm-none-eabi/9.2.1/thumb/v7e-m+fp/hard/crti.o
                0x08016b64                _init
 .init          0x08016b68        0x8 d:/toolchain/gcc-arm-none-eabi/bin/../lib/gcc/arm-none-eabi/9.2.1/thumb/v7e-m+fp/hard/crtn.o
 *(.fini)
 .fini          0x08016b70        0x4 d:/toolchain/gcc-arm-none-eabi/bin/../lib/gcc/arm-none-eabi/9.2.1/thumb/v7e-m+fp/hard/crti.o
                0x08016b70                _fini
 .fini          0x08016b74        0x8 d:/toolchain/gcc-arm-none-eabi/bin/../lib/gcc/arm-none-eabi/9.2.1/thumb/v7e-m+fp/hard/crtn.o
                0x08016b7c                . = ALIGN (0x4)
                0x08016b7c                _etext = .

.vfp11_veneer   0x08016b7c        0x0
 .vfp11_veneer  0x08016b7c        0x0 linker stubs

.v4_bx          0x08016b7c        0x0
 .v4_bx         0x08016b7c        0x0 linker stubs

.iplt           0x08016b7c        0x0
 .iplt          0x08016b7c        0x0 d:/toolchain/gcc-arm-none-eabi/bin/../lib/gcc/arm-none-eabi/9.2.1/thumb/v7e-m+fp/hard/crtbegin.o

.rodata         0x08016b80      0xd98
                0x08016b80                . = ALIGN (0x4)
 *(.rodata)
 .rodata        0x08016b80       0x50 build/cmd_parser.o
 .rodata        0x08016bd0       0x24 build/dimmer_task.o
                0x08016bd0                _dimmerTask_attr
 .rodata        0x08016bf4       0x18 build/system_stm32f4xx.o
                0x08016bf4                AHBPrescTable
                0x08016c04                APBPrescTable
 .rodata        0x08016c0c       0x24 build/cmd_task.o
                0x08016c0c                cmdTask_attr
 .rodata        0x08016c30        0x8 build/stm32f4_HAL/stm32f4xx_hal_dma.o
 .rodata        0x08016c38        0x8 build/stm32f4_HAL/stm32f4xx_ll_dma.o
 .rodata        0x08016c40        0x5 build/FreeRTOS/cmsis_os2.o
 *(.rodata*)
 .rodata.str1.1
                0x08016c45       0x25 build/cmd_line_buffer.o
 .rodata.str1.1
                0x08016c6a      0x842 build/cmd_parser.o
                                0x845 (size before relaxing)
 .rodata.str1.1
                0x080174ac        0x7 build/dimmer_task.o
 .rodata.str1.1
                0x080174ac        0xa build/heartbeat_task.o
 .rodata.str1.1
                0x080174ac       0x7e build/uart.o
 .rodata.str1.1
                0x0801752a        0xe build/cmd_task.o
 .rodata.str1.1
                0x08017538        0x5 build/FreeRTOS/tasks.o
 .rodata.str1.1
                0x0801753d        0x8 build/FreeRTOS/timers.o
 .rodata.str1.1
                0x08017545       0x11 build/FreeRTOS/cmsis_os2.o
 .rodata._ctype_
                0x08017556      0x101 d:/toolchain/gcc-arm-none-eabi/bin/../lib/gcc/arm-none-eabi/9.2.1/../../../../arm-none-eabi/lib/thumb/v7e-m+fp/hard\libc_nano.a(lib_a-ctype_.o)
                0x08017556                _ctype_
 *fill*         0x08017657        0x1 
 .rodata._global_impure_ptr
                0x08017658        0x4 d:/toolchain/gcc-arm-none-eabi/bin/../lib/gcc/arm-none-eabi/9.2.1/../../../../arm-none-eabi/lib/thumb/v7e-m+fp/hard\libc_nano.a(lib_a-impure.o)
                0x08017658                _global_impure_ptr
 .rodata._mstats_r.str1.1
                0x0801765c       0x21 d:/toolchain/gcc-arm-none-eabi/bin/../lib/gcc/arm-none-eabi/9.2.1/../../../../arm-none-eabi/lib/thumb/v7e-m+fp/hard\libc_nano.a(lib_a-mstats.o)
 .rodata._malloc_stats_r.str1.1
                0x0801767d       0x4b d:/toolchain/gcc-arm-none-eabi/bin/../lib/gcc/arm-none-eabi/9.2.1/../../../../arm-none-eabi/lib/thumb/v7e-m+fp/hard\libc_nano.a(lib_a-nano-mallstatsr.o)
 .rodata._printf_float.str1.1
                0x080176c8       0x12 d:/toolchain/gcc-arm-none-eabi/bin/../lib/gcc/arm-none-eabi/9.2.1/../../../../arm-none-eabi/lib/thumb/v7e-m+fp/hard\libc_nano.a(lib_a-nano-vfprintf_float.o)
 .rodata._printf_i.str1.1
                0x080176da       0x22 d:/toolchain/gcc-arm-none-eabi/bin/../lib/gcc/arm-none-eabi/9.2.1/../../../../arm-none-eabi/lib/thumb/v7e-m+fp/hard\libc_nano.a(lib_a-nano-vfprintf_i.o)
 .rodata._scanf_float.str1.1
                0x080176fc        0x5 d:/toolchain/gcc-arm-none-eabi/bin/../lib/gcc/arm-none-eabi/9.2.1/../../../../arm-none-eabi/lib/thumb/v7e-m+fp/hard\libc_nano.a(lib_a-nano-vfscanf_float.o)
                                  0x6 (size before relaxing)
 .rodata._strtod_l.str1.1
                0x08017701        0x5 d:/toolchain/gcc-arm-none-eabi/bin/../lib/gcc/arm-none-eabi/9.2.1/../../../../arm-none-eabi/lib/thumb/v7e-m+fp/hard\libc_nano.a(lib_a-strtod.o)
                                  0xd (size before relaxing)
 *fill*         0x08017701        0x3 
 .rodata.fpi.7566
                0x08017704       0x14 d:/toolchain/gcc-arm-none-eabi/bin/../lib/gcc/arm-none-eabi/9.2.1/../../../../arm-none-eabi/lib/thumb/v7e-m+fp/hard\libc_nano.a(lib_a-strtod.o)
 .rodata.fpinan.7602
                0x08017718       0x14 d:/toolchain/gcc-arm-none-eabi/bin/../lib/gcc/arm-none-eabi/9.2.1/../../../../arm-none-eabi/lib/thumb/v7e-m+fp/hard\libc_nano.a(lib_a-strtod.o)
 *fill*         0x0801772c        0x4 
 .rodata.tinytens
                0x08017730       0x28 d:/toolchain/gcc-arm-none-eabi/bin/../lib/gcc/arm-none-eabi/9.2.1/../../../../arm-none-eabi/lib/thumb/v7e-m+fp/hard\libc_nano.a(lib_a-strtod.o)
 .rodata._dtoa_r.str1.1
                0x08017758        0xd d:/toolchain/gcc-arm-none-eabi/bin/../lib/gcc/arm-none-eabi/9.2.1/../../../../arm-none-eabi/lib/thumb/v7e-m+fp/hard\libc_nano.a(lib_a-dtoa.o)
                                  0xf (size before relaxing)
 *fill*         0x08017765        0x3 
 .rodata.__sf_fake_stderr
                0x08017768       0x20 d:/toolchain/gcc-arm-none-eabi/bin/../lib/gcc/arm-none-eabi/9.2.1/../../../../arm-none-eabi/lib/thumb/v7e-m+fp/hard\libc_nano.a(lib_a-findfp.o)
                0x08017768                __sf_fake_stderr
 .rodata.__sf_fake_stdin
                0x08017788       0x20 d:/toolchain/gcc-arm-none-eabi/bin/../lib/gcc/arm-none-eabi/9.2.1/../../../../arm-none-eabi/lib/thumb/v7e-m+fp/hard\libc_nano.a(lib_a-findfp.o)
                0x08017788                __sf_fake_stdin
 .rodata.__sf_fake_stdout
                0x080177a8       0x20 d:/toolchain/gcc-arm-none-eabi/bin/../lib/gcc/arm-none-eabi/9.2.1/../../../../arm-none-eabi/lib/thumb/v7e-m+fp/hard\libc_nano.a(lib_a-findfp.o)
                0x080177a8                __sf_fake_stdout
 .rodata.str1.1
                0x080177c8        0x2 d:/toolchain/gcc-arm-none-eabi/bin/../lib/gcc/arm-none-eabi/9.2.1/../../../../arm-none-eabi/lib/thumb/v7e-m+fp/hard\libc_nano.a(lib_a-lnumeric.o)
                                  0x3 (size before relaxing)
 *fill*         0x080177ca        0x2 
 .rodata._C_numeric_locale
                0x080177cc        0xc d:/toolchain/gcc-arm-none-eabi/bin/../lib/gcc/arm-none-eabi/9.2.1/../../../../arm-none-eabi/lib/thumb/v7e-m+fp/hard\libc_nano.a(lib_a-lnumeric.o)
                0x080177cc                _C_numeric_locale
 .rodata._setlocale_r.str1.1
                0x080177d8        0x8 d:/toolchain/gcc-arm-none-eabi/bin/../lib/gcc/arm-none-eabi/9.2.1/../../../../arm-none-eabi/lib/thumb/v7e-m+fp/hard\libc_nano.a(lib_a-locale.o)
                                  0x9 (size before relaxing)
 .rodata.str1.1
                0x080177e0        0x2 d:/toolchain/gcc-arm-none-eabi/bin/../lib/gcc/arm-none-eabi/9.2.1/../../../../arm-none-eabi/lib/thumb/v7e-m+fp/hard\libc_nano.a(lib_a-locale.o)
 .rodata.__mprec_bigtens
                0x080177e0       0x28 d:/toolchain/gcc-arm-none-eabi/bin/../lib/gcc/arm-none-eabi/9.2.1/../../../../arm-none-eabi/lib/thumb/v7e-m+fp/hard\libc_nano.a(lib_a-mprec.o)
                0x080177e0                __mprec_bigtens
 .rodata.__mprec_tens
                0x08017808       0xc8 d:/toolchain/gcc-arm-none-eabi/bin/../lib/gcc/arm-none-eabi/9.2.1/../../../../arm-none-eabi/lib/thumb/v7e-m+fp/hard\libc_nano.a(lib_a-mprec.o)
                0x08017808                __mprec_tens
 .rodata.__mprec_tinytens
                0x080178d0       0x28 d:/toolchain/gcc-arm-none-eabi/bin/../lib/gcc/arm-none-eabi/9.2.1/../../../../arm-none-eabi/lib/thumb/v7e-m+fp/hard\libc_nano.a(lib_a-mprec.o)
                0x080178d0                __mprec_tinytens
 .rodata.p05.7490
                0x080178f8        0xc d:/toolchain/gcc-arm-none-eabi/bin/../lib/gcc/arm-none-eabi/9.2.1/../../../../arm-none-eabi/lib/thumb/v7e-m+fp/hard\libc_nano.a(lib_a-mprec.o)
 .rodata._svfprintf_r.str1.1
                0x08017904       0x11 d:/toolchain/gcc-arm-none-eabi/bin/../lib/gcc/arm-none-eabi/9.2.1/../../../../arm-none-eabi/lib/thumb/v7e-m+fp/hard\libc_nano.a(lib_a-nano-svfprintf.o)
 .rodata._vfprintf_r.str1.1
                0x08017915       0x11 d:/toolchain/gcc-arm-none-eabi/bin/../lib/gcc/arm-none-eabi/9.2.1/../../../../arm-none-eabi/lib/thumb/v7e-m+fp/hard\libc_nano.a(lib_a-nano-vfprintf.o)
                0x08017928                . = ALIGN (0x4)
 *fill*         0x08017915        0x3 

.ARM.extab      0x08017918        0x0
 *(.ARM.extab* .gnu.linkonce.armextab.*)
 .ARM.extab     0x08017918        0x0 d:/toolchain/gcc-arm-none-eabi/bin/../lib/gcc/arm-none-eabi/9.2.1/../../../../arm-none-eabi/lib/thumb/v7e-m+fp/hard/crt0.o
 .ARM.extab     0x08017918        0x0 d:/toolchain/gcc-arm-none-eabi/bin/../lib/gcc/arm-none-eabi/9.2.1/thumb/v7e-m+fp/hard\libgcc.a(_udivmoddi4.o)

.ARM            0x08017918        0x8
                0x08017918                __exidx_start = .
 *(.ARM.exidx*)
 .ARM.exidx     0x08017918        0x8 d:/toolchain/gcc-arm-none-eabi/bin/../lib/gcc/arm-none-eabi/9.2.1/../../../../arm-none-eabi/lib/thumb/v7e-m+fp/hard/crt0.o
 .ARM.exidx     0x08017920        0x0 d:/toolchain/gcc-arm-none-eabi/bin/../lib/gcc/arm-none-eabi/9.2.1/thumb/v7e-m+fp/hard\libgcc.a(_udivmoddi4.o)
                                  0x8 (size before relaxing)
                0x08017920                __exidx_end = .

.rel.dyn        0x08017920        0x0
 .rel.iplt      0x08017920        0x0 d:/toolchain/gcc-arm-none-eabi/bin/../lib/gcc/arm-none-eabi/9.2.1/thumb/v7e-m+fp/hard/crtbegin.o

.preinit_array  0x08017920        0x0
                0x08017920                PROVIDE (__preinit_array_start = .)
 *(.preinit_array*)
                0x08017920                PROVIDE (__preinit_array_end = .)

.init_array     0x08017920        0x4
                0x08017920                PROVIDE (__init_array_start = .)
 *(SORT_BY_NAME(.init_array.*))
 *(.init_array*)
 .init_array    0x08017920        0x4 d:/toolchain/gcc-arm-none-eabi/bin/../lib/gcc/arm-none-eabi/9.2.1/thumb/v7e-m+fp/hard/crtbegin.o
                0x08017924                PROVIDE (__init_array_end = .)

.fini_array     0x08017924        0x4
                [!provide]                PROVIDE (__fini_array_start = .)
 *(SORT_BY_NAME(.fini_array.*))
 *(.fini_array*)
 .fini_array    0x08017924        0x4 d:/toolchain/gcc-arm-none-eabi/bin/../lib/gcc/arm-none-eabi/9.2.1/thumb/v7e-m+fp/hard/crtbegin.o
                [!provide]                PROVIDE (__fini_array_end = .)
                0x08017928                _sidata = LOADADDR (.data)

.data           0x20000000      0x218 load address 0x08017928
                0x20000000                . = ALIGN (0x4)
                0x20000000                _sdata = .
 *(.data)
 .data          0x20000000        0x0 d:/toolchain/gcc-arm-none-eabi/bin/../lib/gcc/arm-none-eabi/9.2.1/thumb/v7e-m+fp/hard/crti.o
 .data          0x20000000        0x4 d:/toolchain/gcc-arm-none-eabi/bin/../lib/gcc/arm-none-eabi/9.2.1/thumb/v7e-m+fp/hard/crtbegin.o
                0x20000000                __dso_handle
 .data          0x20000004        0x0 d:/toolchain/gcc-arm-none-eabi/bin/../lib/gcc/arm-none-eabi/9.2.1/../../../../arm-none-eabi/lib/thumb/v7e-m+fp/hard/crt0.o
 .data          0x20000004        0x0 build/cmd_line_buffer.o
 .data          0x20000004        0x0 build/cmd_parser.o
 .data          0x20000004        0x0 build/light.o
 .data          0x20000004        0x0 build/potentiometer.o
 .data          0x20000004        0x0 build/led_rgb.o
 .data          0x20000004        0x0 build/button.o
 .data          0x20000004        0x0 build/dimmer_task.o
 .data          0x20000004       0x10 build/heartbeat_task.o
 .data          0x20000014        0x0 build/stm32f4xx_hal_msp.o
 .data          0x20000014        0x0 build/main.o
 .data          0x20000014        0x0 build/stm32f4xx_it.o
 .data          0x20000014        0x4 build/system_stm32f4xx.o
                0x20000014                SystemCoreClock
 .data          0x20000018       0x10 build/uart.o
 .data          0x20000028        0x8 build/cmd_task.o
 .data          0x20000030        0x0 build/startup_stm32f446xx.o
 .data          0x20000030        0x8 build/stm32f4_HAL/stm32f4xx_hal.o
                0x20000030                uwTickFreq
                0x20000034                uwTickPrio
 .data          0x20000038        0x0 build/stm32f4_HAL/stm32f4xx_hal_dma.o
 .data          0x20000038        0x0 build/stm32f4_HAL/stm32f4xx_hal_adc.o
 .data          0x20000038        0x0 build/stm32f4_HAL/stm32f4xx_hal_adc_ex.o
 .data          0x20000038        0x0 build/stm32f4_HAL/stm32f4xx_hal_gpio.o
 .data          0x20000038        0x0 build/stm32f4_HAL/stm32f4xx_ll_gpio.o
 .data          0x20000038        0x0 build/stm32f4_HAL/stm32f4xx_ll_usart.o
 .data          0x20000038        0x0 build/stm32f4_HAL/stm32f4xx_ll_dma.o
 .data          0x20000038        0x0 build/stm32f4_HAL/stm32f4xx_ll_rcc.o
 .data          0x20000038        0x0 build/stm32f4_HAL/stm32f4xx_hal_i2c.o
 .data          0x20000038        0x0 build/stm32f4_HAL/stm32f4xx_hal_i2c_ex.o
 .data          0x20000038        0x0 build/stm32f4_HAL/stm32f4xx_hal_tim.o
 .data          0x20000038        0x0 build/stm32f4_HAL/stm32f4xx_hal_tim_ex.o
 .data          0x20000038        0x0 build/stm32f4_HAL/stm32f4xx_hal_rtc.o
 .data          0x20000038        0x0 build/stm32f4_HAL/stm32f4xx_hal_rcc.o
 .data          0x20000038        0x0 build/stm32f4_HAL/stm32f4xx_hal_rcc_ex.o
 .data          0x20000038        0x0 build/stm32f4_HAL/stm32f4xx_hal_pwr.o
 .data          0x20000038        0x0 build/stm32f4_HAL/stm32f4xx_hal_pwr_ex.o
 .data          0x20000038        0x0 build/stm32f4_HAL/stm32f4xx_hal_cortex.o
 .data          0x20000038        0x0 build/stm32f4_HAL/stm32f4xx_hal_spi.o
 .data          0x20000038        0x0 build/FreeRTOS/croutine.o
 .data          0x20000038        0x0 build/FreeRTOS/event_groups.o
 .data          0x20000038        0x0 build/FreeRTOS/list.o
 .data          0x20000038        0x0 build/FreeRTOS/queue.o
 .data          0x20000038        0x0 build/FreeRTOS/tasks.o
 .data          0x20000038        0x0 build/FreeRTOS/timers.o
 .data          0x20000038        0x0 build/FreeRTOS/stream_buffer.o
 .data          0x20000038        0x0 build/FreeRTOS/cmsis_os2.o
 .data          0x20000038        0x0 build/FreeRTOS/clib_arm.o
 .data          0x20000038        0x0 build/FreeRTOS/os_systick.o
 .data          0x20000038        0x8 build/FreeRTOS/heap_useNewlib.o
 .data          0x20000040        0x4 build/FreeRTOS/port.o
 .data          0x20000044        0x0 d:/toolchain/gcc-arm-none-eabi/bin/../lib/gcc/arm-none-eabi/9.2.1/thumb/v7e-m+fp/hard\libgcc.a(_aeabi_ldivmod.o)
 .data          0x20000044        0x0 d:/toolchain/gcc-arm-none-eabi/bin/../lib/gcc/arm-none-eabi/9.2.1/thumb/v7e-m+fp/hard\libgcc.a(_aeabi_uldivmod.o)
 .data          0x20000044        0x0 d:/toolchain/gcc-arm-none-eabi/bin/../lib/gcc/arm-none-eabi/9.2.1/thumb/v7e-m+fp/hard\libgcc.a(_udivmoddi4.o)
 .data          0x20000044        0x0 d:/toolchain/gcc-arm-none-eabi/bin/../lib/gcc/arm-none-eabi/9.2.1/thumb/v7e-m+fp/hard\libgcc.a(_dvmd_tls.o)
 .data          0x20000044        0x0 d:/toolchain/gcc-arm-none-eabi/bin/../lib/gcc/arm-none-eabi/9.2.1/../../../../arm-none-eabi/lib/thumb/v7e-m+fp/hard\libc_nano.a(lib_a-atoi.o)
 .data          0x20000044        0x0 d:/toolchain/gcc-arm-none-eabi/bin/../lib/gcc/arm-none-eabi/9.2.1/../../../../arm-none-eabi/lib/thumb/v7e-m+fp/hard\libc_nano.a(lib_a-ctype_.o)
 .data          0x20000044        0x0 d:/toolchain/gcc-arm-none-eabi/bin/../lib/gcc/arm-none-eabi/9.2.1/../../../../arm-none-eabi/lib/thumb/v7e-m+fp/hard\libc_nano.a(lib_a-exit.o)
 .data          0x20000044        0x0 d:/toolchain/gcc-arm-none-eabi/bin/../lib/gcc/arm-none-eabi/9.2.1/../../../../arm-none-eabi/lib/thumb/v7e-m+fp/hard\libc_nano.a(lib_a-getchar.o)
 .data          0x20000044        0x0 d:/toolchain/gcc-arm-none-eabi/bin/../lib/gcc/arm-none-eabi/9.2.1/../../../../arm-none-eabi/lib/thumb/v7e-m+fp/hard\libc_nano.a(lib_a-impure.o)
 .data          0x20000044        0x0 d:/toolchain/gcc-arm-none-eabi/bin/../lib/gcc/arm-none-eabi/9.2.1/../../../../arm-none-eabi/lib/thumb/v7e-m+fp/hard\libc_nano.a(lib_a-init.o)
 .data          0x20000044        0x0 d:/toolchain/gcc-arm-none-eabi/bin/../lib/gcc/arm-none-eabi/9.2.1/../../../../arm-none-eabi/lib/thumb/v7e-m+fp/hard\libc_nano.a(lib_a-malloc.o)
 .data          0x20000044        0x0 d:/toolchain/gcc-arm-none-eabi/bin/../lib/gcc/arm-none-eabi/9.2.1/../../../../arm-none-eabi/lib/thumb/v7e-m+fp/hard\libc_nano.a(lib_a-memcpy-stub.o)
 .data          0x20000044        0x0 d:/toolchain/gcc-arm-none-eabi/bin/../lib/gcc/arm-none-eabi/9.2.1/../../../../arm-none-eabi/lib/thumb/v7e-m+fp/hard\libc_nano.a(lib_a-memset.o)
 .data          0x20000044        0x0 d:/toolchain/gcc-arm-none-eabi/bin/../lib/gcc/arm-none-eabi/9.2.1/../../../../arm-none-eabi/lib/thumb/v7e-m+fp/hard\libc_nano.a(lib_a-mstats.o)
 .data          0x20000044        0x0 d:/toolchain/gcc-arm-none-eabi/bin/../lib/gcc/arm-none-eabi/9.2.1/../../../../arm-none-eabi/lib/thumb/v7e-m+fp/hard\libc_nano.a(lib_a-nano-freer.o)
 .data          0x20000044        0x0 d:/toolchain/gcc-arm-none-eabi/bin/../lib/gcc/arm-none-eabi/9.2.1/../../../../arm-none-eabi/lib/thumb/v7e-m+fp/hard\libc_nano.a(lib_a-nano-mallinfor.o)
 .data          0x20000044        0x0 d:/toolchain/gcc-arm-none-eabi/bin/../lib/gcc/arm-none-eabi/9.2.1/../../../../arm-none-eabi/lib/thumb/v7e-m+fp/hard\libc_nano.a(lib_a-nano-mallocr.o)
 .data          0x20000044        0x0 d:/toolchain/gcc-arm-none-eabi/bin/../lib/gcc/arm-none-eabi/9.2.1/../../../../arm-none-eabi/lib/thumb/v7e-m+fp/hard\libc_nano.a(lib_a-nano-malloptr.o)
 .data          0x20000044        0x0 d:/toolchain/gcc-arm-none-eabi/bin/../lib/gcc/arm-none-eabi/9.2.1/../../../../arm-none-eabi/lib/thumb/v7e-m+fp/hard\libc_nano.a(lib_a-nano-mallstatsr.o)
 .data          0x20000044        0x0 d:/toolchain/gcc-arm-none-eabi/bin/../lib/gcc/arm-none-eabi/9.2.1/../../../../arm-none-eabi/lib/thumb/v7e-m+fp/hard\libc_nano.a(lib_a-nano-vfprintf_float.o)
 .data          0x20000044        0x0 d:/toolchain/gcc-arm-none-eabi/bin/../lib/gcc/arm-none-eabi/9.2.1/../../../../arm-none-eabi/lib/thumb/v7e-m+fp/hard\libc_nano.a(lib_a-nano-vfprintf_i.o)
 .data          0x20000044        0x0 d:/toolchain/gcc-arm-none-eabi/bin/../lib/gcc/arm-none-eabi/9.2.1/../../../../arm-none-eabi/lib/thumb/v7e-m+fp/hard\libc_nano.a(lib_a-nano-vfscanf_float.o)
 .data          0x20000044        0x0 d:/toolchain/gcc-arm-none-eabi/bin/../lib/gcc/arm-none-eabi/9.2.1/../../../../arm-none-eabi/lib/thumb/v7e-m+fp/hard\libc_nano.a(lib_a-printf.o)
 .data          0x20000044        0x0 d:/toolchain/gcc-arm-none-eabi/bin/../lib/gcc/arm-none-eabi/9.2.1/../../../../arm-none-eabi/lib/thumb/v7e-m+fp/hard\libc_nano.a(lib_a-reent.o)
 .data          0x20000044        0x0 d:/toolchain/gcc-arm-none-eabi/bin/../lib/gcc/arm-none-eabi/9.2.1/../../../../arm-none-eabi/lib/thumb/v7e-m+fp/hard\libc_nano.a(lib_a-sbrkr.o)
 .data          0x20000044        0x0 d:/toolchain/gcc-arm-none-eabi/bin/../lib/gcc/arm-none-eabi/9.2.1/../../../../arm-none-eabi/lib/thumb/v7e-m+fp/hard\libc_nano.a(lib_a-setvbuf.o)
 .data          0x20000044        0x0 d:/toolchain/gcc-arm-none-eabi/bin/../lib/gcc/arm-none-eabi/9.2.1/../../../../arm-none-eabi/lib/thumb/v7e-m+fp/hard\libc_nano.a(lib_a-sf_nan.o)
 .data          0x20000044        0x0 d:/toolchain/gcc-arm-none-eabi/bin/../lib/gcc/arm-none-eabi/9.2.1/../../../../arm-none-eabi/lib/thumb/v7e-m+fp/hard\libc_nano.a(lib_a-sprintf.o)
 .data          0x20000044        0x0 d:/toolchain/gcc-arm-none-eabi/bin/../lib/gcc/arm-none-eabi/9.2.1/../../../../arm-none-eabi/lib/thumb/v7e-m+fp/hard\libc_nano.a(lib_a-strcmp.o)
 .data          0x20000044        0x0 d:/toolchain/gcc-arm-none-eabi/bin/../lib/gcc/arm-none-eabi/9.2.1/../../../../arm-none-eabi/lib/thumb/v7e-m+fp/hard\libc_nano.a(lib_a-strlen.o)
 .data          0x20000044        0x0 d:/toolchain/gcc-arm-none-eabi/bin/../lib/gcc/arm-none-eabi/9.2.1/../../../../arm-none-eabi/lib/thumb/v7e-m+fp/hard\libc_nano.a(lib_a-strtod.o)
 .data          0x20000044        0x0 d:/toolchain/gcc-arm-none-eabi/bin/../lib/gcc/arm-none-eabi/9.2.1/../../../../arm-none-eabi/lib/thumb/v7e-m+fp/hard\libc_nano.a(lib_a-strtol.o)
 .data          0x20000044        0x0 d:/toolchain/gcc-arm-none-eabi/bin/../lib/gcc/arm-none-eabi/9.2.1/../../../../arm-none-eabi/lib/thumb/v7e-m+fp/hard\libc_nano.a(lib_a-vprintf.o)
 .data          0x20000044        0x0 d:/toolchain/gcc-arm-none-eabi/bin/../lib/gcc/arm-none-eabi/9.2.1/../../../../arm-none-eabi/lib/thumb/v7e-m+fp/hard\libc_nano.a(lib_a-dtoa.o)
 .data          0x20000044        0x0 d:/toolchain/gcc-arm-none-eabi/bin/../lib/gcc/arm-none-eabi/9.2.1/../../../../arm-none-eabi/lib/thumb/v7e-m+fp/hard\libc_nano.a(lib_a-fflush.o)
 .data          0x20000044        0x0 d:/toolchain/gcc-arm-none-eabi/bin/../lib/gcc/arm-none-eabi/9.2.1/../../../../arm-none-eabi/lib/thumb/v7e-m+fp/hard\libc_nano.a(lib_a-findfp.o)
 .data          0x20000044        0x0 d:/toolchain/gcc-arm-none-eabi/bin/../lib/gcc/arm-none-eabi/9.2.1/../../../../arm-none-eabi/lib/thumb/v7e-m+fp/hard\libc_nano.a(lib_a-fprintf.o)
 .data          0x20000044        0x0 d:/toolchain/gcc-arm-none-eabi/bin/../lib/gcc/arm-none-eabi/9.2.1/../../../../arm-none-eabi/lib/thumb/v7e-m+fp/hard\libc_nano.a(lib_a-fwalk.o)
 .data          0x20000044        0x0 d:/toolchain/gcc-arm-none-eabi/bin/../lib/gcc/arm-none-eabi/9.2.1/../../../../arm-none-eabi/lib/thumb/v7e-m+fp/hard\libc_nano.a(lib_a-gdtoa-gethex.o)
 .data          0x20000044        0x0 d:/toolchain/gcc-arm-none-eabi/bin/../lib/gcc/arm-none-eabi/9.2.1/../../../../arm-none-eabi/lib/thumb/v7e-m+fp/hard\libc_nano.a(lib_a-gdtoa-hexnan.o)
 .data          0x20000044        0x0 d:/toolchain/gcc-arm-none-eabi/bin/../lib/gcc/arm-none-eabi/9.2.1/../../../../arm-none-eabi/lib/thumb/v7e-m+fp/hard\libc_nano.a(lib_a-getc.o)
 .data          0x20000044        0x0 d:/toolchain/gcc-arm-none-eabi/bin/../lib/gcc/arm-none-eabi/9.2.1/../../../../arm-none-eabi/lib/thumb/v7e-m+fp/hard\libc_nano.a(lib_a-lnumeric.o)
 .data          0x20000044        0x0 d:/toolchain/gcc-arm-none-eabi/bin/../lib/gcc/arm-none-eabi/9.2.1/../../../../arm-none-eabi/lib/thumb/v7e-m+fp/hard\libc_nano.a(lib_a-locale.o)
 .data          0x20000044        0x0 d:/toolchain/gcc-arm-none-eabi/bin/../lib/gcc/arm-none-eabi/9.2.1/../../../../arm-none-eabi/lib/thumb/v7e-m+fp/hard\libc_nano.a(lib_a-localeconv.o)
 .data          0x20000044        0x0 d:/toolchain/gcc-arm-none-eabi/bin/../lib/gcc/arm-none-eabi/9.2.1/../../../../arm-none-eabi/lib/thumb/v7e-m+fp/hard\libc_nano.a(lib_a-lock.o)
 .data          0x20000044        0x0 d:/toolchain/gcc-arm-none-eabi/bin/../lib/gcc/arm-none-eabi/9.2.1/../../../../arm-none-eabi/lib/thumb/v7e-m+fp/hard\libc_nano.a(lib_a-makebuf.o)
 .data          0x20000044        0x0 d:/toolchain/gcc-arm-none-eabi/bin/../lib/gcc/arm-none-eabi/9.2.1/../../../../arm-none-eabi/lib/thumb/v7e-m+fp/hard\libc_nano.a(lib_a-mbtowc_r.o)
 .data          0x20000044        0x0 d:/toolchain/gcc-arm-none-eabi/bin/../lib/gcc/arm-none-eabi/9.2.1/../../../../arm-none-eabi/lib/thumb/v7e-m+fp/hard\libc_nano.a(lib_a-memchr.o)
 .data          0x20000044        0x0 d:/toolchain/gcc-arm-none-eabi/bin/../lib/gcc/arm-none-eabi/9.2.1/../../../../arm-none-eabi/lib/thumb/v7e-m+fp/hard\libc_nano.a(lib_a-mprec.o)
 .data          0x20000044        0x0 d:/toolchain/gcc-arm-none-eabi/bin/../lib/gcc/arm-none-eabi/9.2.1/../../../../arm-none-eabi/lib/thumb/v7e-m+fp/hard\libc_nano.a(lib_a-nano-callocr.o)
 .data          0x20000044        0x0 d:/toolchain/gcc-arm-none-eabi/bin/../lib/gcc/arm-none-eabi/9.2.1/../../../../arm-none-eabi/lib/thumb/v7e-m+fp/hard\libc_nano.a(lib_a-nano-svfprintf.o)
 .data          0x20000044        0x0 d:/toolchain/gcc-arm-none-eabi/bin/../lib/gcc/arm-none-eabi/9.2.1/../../../../arm-none-eabi/lib/thumb/v7e-m+fp/hard\libc_nano.a(lib_a-nano-vfprintf.o)
 .data          0x20000044        0x0 d:/toolchain/gcc-arm-none-eabi/bin/../lib/gcc/arm-none-eabi/9.2.1/../../../../arm-none-eabi/lib/thumb/v7e-m+fp/hard\libc_nano.a(lib_a-rget.o)
 .data          0x20000044        0x0 d:/toolchain/gcc-arm-none-eabi/bin/../lib/gcc/arm-none-eabi/9.2.1/../../../../arm-none-eabi/lib/thumb/v7e-m+fp/hard\libc_nano.a(lib_a-s_nan.o)
 .data          0x20000044        0x0 d:/toolchain/gcc-arm-none-eabi/bin/../lib/gcc/arm-none-eabi/9.2.1/../../../../arm-none-eabi/lib/thumb/v7e-m+fp/hard\libc_nano.a(lib_a-stdio.o)
 .data          0x20000044        0x0 d:/toolchain/gcc-arm-none-eabi/bin/../lib/gcc/arm-none-eabi/9.2.1/../../../../arm-none-eabi/lib/thumb/v7e-m+fp/hard\libc_nano.a(lib_a-strncmp.o)
 .data          0x20000044        0x0 d:/toolchain/gcc-arm-none-eabi/bin/../lib/gcc/arm-none-eabi/9.2.1/../../../../arm-none-eabi/lib/thumb/v7e-m+fp/hard\libc_nano.a(lib_a-wbuf.o)
 .data          0x20000044        0x0 d:/toolchain/gcc-arm-none-eabi/bin/../lib/gcc/arm-none-eabi/9.2.1/../../../../arm-none-eabi/lib/thumb/v7e-m+fp/hard\libc_nano.a(lib_a-wctomb_r.o)
 .data          0x20000044        0x0 d:/toolchain/gcc-arm-none-eabi/bin/../lib/gcc/arm-none-eabi/9.2.1/../../../../arm-none-eabi/lib/thumb/v7e-m+fp/hard\libc_nano.a(lib_a-writer.o)
 .data          0x20000044        0x0 d:/toolchain/gcc-arm-none-eabi/bin/../lib/gcc/arm-none-eabi/9.2.1/../../../../arm-none-eabi/lib/thumb/v7e-m+fp/hard\libc_nano.a(lib_a-wsetup.o)
 .data          0x20000044        0x0 d:/toolchain/gcc-arm-none-eabi/bin/../lib/gcc/arm-none-eabi/9.2.1/../../../../arm-none-eabi/lib/thumb/v7e-m+fp/hard\libc_nano.a(lib_a-closer.o)
 .data          0x20000044        0x0 d:/toolchain/gcc-arm-none-eabi/bin/../lib/gcc/arm-none-eabi/9.2.1/../../../../arm-none-eabi/lib/thumb/v7e-m+fp/hard\libc_nano.a(lib_a-fstatr.o)
 .data          0x20000044        0x0 d:/toolchain/gcc-arm-none-eabi/bin/../lib/gcc/arm-none-eabi/9.2.1/../../../../arm-none-eabi/lib/thumb/v7e-m+fp/hard\libc_nano.a(lib_a-fvwrite.o)
 .data          0x20000044        0x0 d:/toolchain/gcc-arm-none-eabi/bin/../lib/gcc/arm-none-eabi/9.2.1/../../../../arm-none-eabi/lib/thumb/v7e-m+fp/hard\libc_nano.a(lib_a-isattyr.o)
 .data          0x20000044        0x0 d:/toolchain/gcc-arm-none-eabi/bin/../lib/gcc/arm-none-eabi/9.2.1/../../../../arm-none-eabi/lib/thumb/v7e-m+fp/hard\libc_nano.a(lib_a-lseekr.o)
 .data          0x20000044        0x0 d:/toolchain/gcc-arm-none-eabi/bin/../lib/gcc/arm-none-eabi/9.2.1/../../../../arm-none-eabi/lib/thumb/v7e-m+fp/hard\libc_nano.a(lib_a-memmove.o)
 .data          0x20000044        0x0 d:/toolchain/gcc-arm-none-eabi/bin/../lib/gcc/arm-none-eabi/9.2.1/../../../../arm-none-eabi/lib/thumb/v7e-m+fp/hard\libc_nano.a(lib_a-nano-reallocr.o)
 .data          0x20000044        0x0 d:/toolchain/gcc-arm-none-eabi/bin/../lib/gcc/arm-none-eabi/9.2.1/../../../../arm-none-eabi/lib/thumb/v7e-m+fp/hard\libc_nano.a(lib_a-readr.o)
 .data          0x20000044        0x0 d:/toolchain/gcc-arm-none-eabi/bin/../lib/gcc/arm-none-eabi/9.2.1/../../../../arm-none-eabi/lib/thumb/v7e-m+fp/hard\libc_nano.a(lib_a-refill.o)
 .data          0x20000044        0x0 d:/toolchain/gcc-arm-none-eabi/bin/../lib/gcc/arm-none-eabi/9.2.1/../../../../arm-none-eabi/lib/thumb/v7e-m+fp/hard\libc_nano.a(lib_a-nano-msizer.o)
 .data          0x20000044        0x0 d:/toolchain/gcc-arm-none-eabi/bin/../lib/gcc/arm-none-eabi/9.2.1/thumb/v7e-m+fp/hard\libgcc.a(_arm_muldf3.o)
 .data          0x20000044        0x0 d:/toolchain/gcc-arm-none-eabi/bin/../lib/gcc/arm-none-eabi/9.2.1/thumb/v7e-m+fp/hard\libgcc.a(_arm_addsubdf3.o)
 .data          0x20000044        0x0 d:/toolchain/gcc-arm-none-eabi/bin/../lib/gcc/arm-none-eabi/9.2.1/thumb/v7e-m+fp/hard\libgcc.a(_arm_muldivdf3.o)
 .data          0x20000044        0x0 d:/toolchain/gcc-arm-none-eabi/bin/../lib/gcc/arm-none-eabi/9.2.1/thumb/v7e-m+fp/hard\libgcc.a(_arm_cmpdf2.o)
 .data          0x20000044        0x0 d:/toolchain/gcc-arm-none-eabi/bin/../lib/gcc/arm-none-eabi/9.2.1/thumb/v7e-m+fp/hard\libgcc.a(_arm_unorddf2.o)
 .data          0x20000044        0x0 d:/toolchain/gcc-arm-none-eabi/bin/../lib/gcc/arm-none-eabi/9.2.1/thumb/v7e-m+fp/hard\libgcc.a(_arm_fixdfsi.o)
 .data          0x20000044        0x0 d:/toolchain/gcc-arm-none-eabi/bin/../lib/gcc/arm-none-eabi/9.2.1/thumb/v7e-m+fp/hard\libgcc.a(_arm_fixunsdfsi.o)
 .data          0x20000044        0x0 d:/toolchain/gcc-arm-none-eabi/bin/../lib/gcc/arm-none-eabi/9.2.1/thumb/v7e-m+fp/hard\libgcc.a(_arm_truncdfsf2.o)
 .data          0x20000044        0x0 d:/toolchain/gcc-arm-none-eabi/bin/../lib/gcc/arm-none-eabi/9.2.1/thumb/v7e-m+fp/hard\libgcc.a(_fixdfdi.o)
 .data          0x20000044        0x0 d:/toolchain/gcc-arm-none-eabi/bin/../lib/gcc/arm-none-eabi/9.2.1/thumb/v7e-m+fp/hard\libgcc.a(_fixunsdfdi.o)
 .data          0x20000044        0x0 d:/toolchain/gcc-arm-none-eabi/bin/../lib/gcc/arm-none-eabi/9.2.1/../../../../arm-none-eabi/lib/thumb/v7e-m+fp/hard\libnosys.a(close.o)
 .data          0x20000044        0x0 d:/toolchain/gcc-arm-none-eabi/bin/../lib/gcc/arm-none-eabi/9.2.1/../../../../arm-none-eabi/lib/thumb/v7e-m+fp/hard\libnosys.a(fstat.o)
 .data          0x20000044        0x0 d:/toolchain/gcc-arm-none-eabi/bin/../lib/gcc/arm-none-eabi/9.2.1/../../../../arm-none-eabi/lib/thumb/v7e-m+fp/hard\libnosys.a(isatty.o)
 .data          0x20000044        0x0 d:/toolchain/gcc-arm-none-eabi/bin/../lib/gcc/arm-none-eabi/9.2.1/../../../../arm-none-eabi/lib/thumb/v7e-m+fp/hard\libnosys.a(lseek.o)
 .data          0x20000044        0x0 d:/toolchain/gcc-arm-none-eabi/bin/../lib/gcc/arm-none-eabi/9.2.1/../../../../arm-none-eabi/lib/thumb/v7e-m+fp/hard\libnosys.a(_exit.o)
 .data          0x20000044        0x0 d:/toolchain/gcc-arm-none-eabi/bin/../lib/gcc/arm-none-eabi/9.2.1/thumb/v7e-m+fp/hard/crtend.o
 .data          0x20000044        0x0 d:/toolchain/gcc-arm-none-eabi/bin/../lib/gcc/arm-none-eabi/9.2.1/thumb/v7e-m+fp/hard/crtn.o
 *(.data*)
 .data._impure_ptr
                0x20000044        0x4 d:/toolchain/gcc-arm-none-eabi/bin/../lib/gcc/arm-none-eabi/9.2.1/../../../../arm-none-eabi/lib/thumb/v7e-m+fp/hard\libc_nano.a(lib_a-impure.o)
                0x20000044                _impure_ptr
 .data.impure_data
                0x20000048       0x60 d:/toolchain/gcc-arm-none-eabi/bin/../lib/gcc/arm-none-eabi/9.2.1/../../../../arm-none-eabi/lib/thumb/v7e-m+fp/hard\libc_nano.a(lib_a-impure.o)
 .data.numempty
                0x200000a8        0x2 d:/toolchain/gcc-arm-none-eabi/bin/../lib/gcc/arm-none-eabi/9.2.1/../../../../arm-none-eabi/lib/thumb/v7e-m+fp/hard\libc_nano.a(lib_a-lnumeric.o)
 *fill*         0x200000aa        0x2 
 .data.__global_locale
                0x200000ac      0x16c d:/toolchain/gcc-arm-none-eabi/bin/../lib/gcc/arm-none-eabi/9.2.1/../../../../arm-none-eabi/lib/thumb/v7e-m+fp/hard\libc_nano.a(lib_a-locale.o)
                0x200000ac                __global_locale
                0x20000218                . = ALIGN (0x4)
                0x20000218                _edata = .

.igot.plt       0x20000218        0x0 load address 0x08017b40
 .igot.plt      0x20000218        0x0 d:/toolchain/gcc-arm-none-eabi/bin/../lib/gcc/arm-none-eabi/9.2.1/thumb/v7e-m+fp/hard/crtbegin.o
                0x20000218                . = ALIGN (0x4)

.bss            0x20000218     0x1468 load address 0x08017b40
                0x20000218                _sbss = .
                0x20000218                __bss_start__ = _sbss
 *(.bss)
 .bss           0x20000218        0x0 d:/toolchain/gcc-arm-none-eabi/bin/../lib/gcc/arm-none-eabi/9.2.1/thumb/v7e-m+fp/hard/crti.o
 .bss           0x20000218       0x1c d:/toolchain/gcc-arm-none-eabi/bin/../lib/gcc/arm-none-eabi/9.2.1/thumb/v7e-m+fp/hard/crtbegin.o
 .bss           0x20000234        0x0 d:/toolchain/gcc-arm-none-eabi/bin/../lib/gcc/arm-none-eabi/9.2.1/../../../../arm-none-eabi/lib/thumb/v7e-m+fp/hard/crt0.o
 .bss           0x20000234        0x0 build/cmd_line_buffer.o
 .bss           0x20000234        0x0 build/cmd_parser.o
 .bss           0x20000234        0xc build/light.o
 .bss           0x20000240       0x5c build/potentiometer.o
 .bss           0x2000029c       0x60 build/led_rgb.o
 .bss           0x200002fc       0x18 build/button.o
 .bss           0x20000314        0x2 build/dimmer_task.o
 *fill*         0x20000316        0x2 
 .bss           0x20000318       0x70 build/heartbeat_task.o
 .bss           0x20000388       0x14 build/stm32f4xx_hal_msp.o
 .bss           0x2000039c        0x0 build/main.o
 .bss           0x2000039c        0x0 build/stm32f4xx_it.o
 .bss           0x2000039c        0x0 build/system_stm32f4xx.o
 .bss           0x2000039c       0x12 build/uart.o
 .bss           0x200003ae       0x51 build/cmd_task.o
 .bss           0x200003ff        0x0 build/startup_stm32f446xx.o
 .bss           0x200003ff        0x0 build/stm32f4_HAL/stm32f4xx_hal.o
 .bss           0x200003ff        0x0 build/stm32f4_HAL/stm32f4xx_hal_dma.o
 .bss           0x200003ff        0x0 build/stm32f4_HAL/stm32f4xx_hal_adc.o
 .bss           0x200003ff        0x0 build/stm32f4_HAL/stm32f4xx_hal_adc_ex.o
 .bss           0x200003ff        0x0 build/stm32f4_HAL/stm32f4xx_hal_gpio.o
 .bss           0x200003ff        0x0 build/stm32f4_HAL/stm32f4xx_ll_gpio.o
 .bss           0x200003ff        0x0 build/stm32f4_HAL/stm32f4xx_ll_usart.o
 .bss           0x200003ff        0x0 build/stm32f4_HAL/stm32f4xx_ll_dma.o
 .bss           0x200003ff        0x0 build/stm32f4_HAL/stm32f4xx_ll_rcc.o
 .bss           0x200003ff        0x0 build/stm32f4_HAL/stm32f4xx_hal_i2c.o
 .bss           0x200003ff        0x0 build/stm32f4_HAL/stm32f4xx_hal_i2c_ex.o
 .bss           0x200003ff        0x0 build/stm32f4_HAL/stm32f4xx_hal_tim.o
 .bss           0x200003ff        0x0 build/stm32f4_HAL/stm32f4xx_hal_tim_ex.o
 .bss           0x200003ff        0x0 build/stm32f4_HAL/stm32f4xx_hal_rtc.o
 .bss           0x200003ff        0x0 build/stm32f4_HAL/stm32f4xx_hal_rcc.o
 .bss           0x200003ff        0x0 build/stm32f4_HAL/stm32f4xx_hal_rcc_ex.o
 .bss           0x200003ff        0x0 build/stm32f4_HAL/stm32f4xx_hal_pwr.o
 .bss           0x200003ff        0x0 build/stm32f4_HAL/stm32f4xx_hal_pwr_ex.o
 .bss           0x200003ff        0x0 build/stm32f4_HAL/stm32f4xx_hal_cortex.o
 .bss           0x200003ff        0x0 build/stm32f4_HAL/stm32f4xx_hal_spi.o
 .bss           0x200003ff        0x0 build/FreeRTOS/croutine.o
 .bss           0x200003ff        0x0 build/FreeRTOS/event_groups.o
 .bss           0x200003ff        0x0 build/FreeRTOS/list.o
 .bss           0x200003ff        0x0 build/FreeRTOS/queue.o
 *fill*         0x200003ff        0x1 
 .bss           0x20000400      0x4fc build/FreeRTOS/tasks.o
                0x20000404                pxCurrentTCB
 .bss           0x200008fc       0xdc build/FreeRTOS/timers.o
 .bss           0x200009d8        0x0 build/FreeRTOS/stream_buffer.o
 .bss           0x200009d8      0xc58 build/FreeRTOS/cmsis_os2.o
 .bss           0x20001630        0x0 build/FreeRTOS/clib_arm.o
 .bss           0x20001630        0x1 build/FreeRTOS/os_systick.o
 *fill*         0x20001631        0x3 
 .bss           0x20001634        0x4 build/FreeRTOS/heap_useNewlib.o
 .bss           0x20001638        0x0 build/FreeRTOS/port.o
 .bss           0x20001638        0x0 d:/toolchain/gcc-arm-none-eabi/bin/../lib/gcc/arm-none-eabi/9.2.1/thumb/v7e-m+fp/hard\libgcc.a(_aeabi_ldivmod.o)
 .bss           0x20001638        0x0 d:/toolchain/gcc-arm-none-eabi/bin/../lib/gcc/arm-none-eabi/9.2.1/thumb/v7e-m+fp/hard\libgcc.a(_aeabi_uldivmod.o)
 .bss           0x20001638        0x0 d:/toolchain/gcc-arm-none-eabi/bin/../lib/gcc/arm-none-eabi/9.2.1/thumb/v7e-m+fp/hard\libgcc.a(_udivmoddi4.o)
 .bss           0x20001638        0x0 d:/toolchain/gcc-arm-none-eabi/bin/../lib/gcc/arm-none-eabi/9.2.1/thumb/v7e-m+fp/hard\libgcc.a(_dvmd_tls.o)
 .bss           0x20001638        0x0 d:/toolchain/gcc-arm-none-eabi/bin/../lib/gcc/arm-none-eabi/9.2.1/../../../../arm-none-eabi/lib/thumb/v7e-m+fp/hard\libc_nano.a(lib_a-atoi.o)
 .bss           0x20001638        0x0 d:/toolchain/gcc-arm-none-eabi/bin/../lib/gcc/arm-none-eabi/9.2.1/../../../../arm-none-eabi/lib/thumb/v7e-m+fp/hard\libc_nano.a(lib_a-ctype_.o)
 .bss           0x20001638        0x0 d:/toolchain/gcc-arm-none-eabi/bin/../lib/gcc/arm-none-eabi/9.2.1/../../../../arm-none-eabi/lib/thumb/v7e-m+fp/hard\libc_nano.a(lib_a-exit.o)
 .bss           0x20001638        0x0 d:/toolchain/gcc-arm-none-eabi/bin/../lib/gcc/arm-none-eabi/9.2.1/../../../../arm-none-eabi/lib/thumb/v7e-m+fp/hard\libc_nano.a(lib_a-getchar.o)
 .bss           0x20001638        0x0 d:/toolchain/gcc-arm-none-eabi/bin/../lib/gcc/arm-none-eabi/9.2.1/../../../../arm-none-eabi/lib/thumb/v7e-m+fp/hard\libc_nano.a(lib_a-impure.o)
 .bss           0x20001638        0x0 d:/toolchain/gcc-arm-none-eabi/bin/../lib/gcc/arm-none-eabi/9.2.1/../../../../arm-none-eabi/lib/thumb/v7e-m+fp/hard\libc_nano.a(lib_a-init.o)
 .bss           0x20001638        0x0 d:/toolchain/gcc-arm-none-eabi/bin/../lib/gcc/arm-none-eabi/9.2.1/../../../../arm-none-eabi/lib/thumb/v7e-m+fp/hard\libc_nano.a(lib_a-malloc.o)
 .bss           0x20001638        0x0 d:/toolchain/gcc-arm-none-eabi/bin/../lib/gcc/arm-none-eabi/9.2.1/../../../../arm-none-eabi/lib/thumb/v7e-m+fp/hard\libc_nano.a(lib_a-memcpy-stub.o)
 .bss           0x20001638        0x0 d:/toolchain/gcc-arm-none-eabi/bin/../lib/gcc/arm-none-eabi/9.2.1/../../../../arm-none-eabi/lib/thumb/v7e-m+fp/hard\libc_nano.a(lib_a-memset.o)
 .bss           0x20001638        0x0 d:/toolchain/gcc-arm-none-eabi/bin/../lib/gcc/arm-none-eabi/9.2.1/../../../../arm-none-eabi/lib/thumb/v7e-m+fp/hard\libc_nano.a(lib_a-mstats.o)
 .bss           0x20001638        0x0 d:/toolchain/gcc-arm-none-eabi/bin/../lib/gcc/arm-none-eabi/9.2.1/../../../../arm-none-eabi/lib/thumb/v7e-m+fp/hard\libc_nano.a(lib_a-nano-freer.o)
 .bss           0x20001638        0x0 d:/toolchain/gcc-arm-none-eabi/bin/../lib/gcc/arm-none-eabi/9.2.1/../../../../arm-none-eabi/lib/thumb/v7e-m+fp/hard\libc_nano.a(lib_a-nano-mallinfor.o)
 .bss           0x20001638        0x0 d:/toolchain/gcc-arm-none-eabi/bin/../lib/gcc/arm-none-eabi/9.2.1/../../../../arm-none-eabi/lib/thumb/v7e-m+fp/hard\libc_nano.a(lib_a-nano-mallocr.o)
 .bss           0x20001638        0x0 d:/toolchain/gcc-arm-none-eabi/bin/../lib/gcc/arm-none-eabi/9.2.1/../../../../arm-none-eabi/lib/thumb/v7e-m+fp/hard\libc_nano.a(lib_a-nano-malloptr.o)
 .bss           0x20001638        0x0 d:/toolchain/gcc-arm-none-eabi/bin/../lib/gcc/arm-none-eabi/9.2.1/../../../../arm-none-eabi/lib/thumb/v7e-m+fp/hard\libc_nano.a(lib_a-nano-mallstatsr.o)
 .bss           0x20001638        0x0 d:/toolchain/gcc-arm-none-eabi/bin/../lib/gcc/arm-none-eabi/9.2.1/../../../../arm-none-eabi/lib/thumb/v7e-m+fp/hard\libc_nano.a(lib_a-nano-vfprintf_float.o)
 .bss           0x20001638        0x0 d:/toolchain/gcc-arm-none-eabi/bin/../lib/gcc/arm-none-eabi/9.2.1/../../../../arm-none-eabi/lib/thumb/v7e-m+fp/hard\libc_nano.a(lib_a-nano-vfprintf_i.o)
 .bss           0x20001638        0x0 d:/toolchain/gcc-arm-none-eabi/bin/../lib/gcc/arm-none-eabi/9.2.1/../../../../arm-none-eabi/lib/thumb/v7e-m+fp/hard\libc_nano.a(lib_a-nano-vfscanf_float.o)
 .bss           0x20001638        0x0 d:/toolchain/gcc-arm-none-eabi/bin/../lib/gcc/arm-none-eabi/9.2.1/../../../../arm-none-eabi/lib/thumb/v7e-m+fp/hard\libc_nano.a(lib_a-printf.o)
 .bss           0x20001638        0x0 d:/toolchain/gcc-arm-none-eabi/bin/../lib/gcc/arm-none-eabi/9.2.1/../../../../arm-none-eabi/lib/thumb/v7e-m+fp/hard\libc_nano.a(lib_a-reent.o)
 .bss           0x20001638        0x0 d:/toolchain/gcc-arm-none-eabi/bin/../lib/gcc/arm-none-eabi/9.2.1/../../../../arm-none-eabi/lib/thumb/v7e-m+fp/hard\libc_nano.a(lib_a-sbrkr.o)
 .bss           0x20001638        0x0 d:/toolchain/gcc-arm-none-eabi/bin/../lib/gcc/arm-none-eabi/9.2.1/../../../../arm-none-eabi/lib/thumb/v7e-m+fp/hard\libc_nano.a(lib_a-setvbuf.o)
 .bss           0x20001638        0x0 d:/toolchain/gcc-arm-none-eabi/bin/../lib/gcc/arm-none-eabi/9.2.1/../../../../arm-none-eabi/lib/thumb/v7e-m+fp/hard\libc_nano.a(lib_a-sf_nan.o)
 .bss           0x20001638        0x0 d:/toolchain/gcc-arm-none-eabi/bin/../lib/gcc/arm-none-eabi/9.2.1/../../../../arm-none-eabi/lib/thumb/v7e-m+fp/hard\libc_nano.a(lib_a-sprintf.o)
 .bss           0x20001638        0x0 d:/toolchain/gcc-arm-none-eabi/bin/../lib/gcc/arm-none-eabi/9.2.1/../../../../arm-none-eabi/lib/thumb/v7e-m+fp/hard\libc_nano.a(lib_a-strcmp.o)
 .bss           0x20001638        0x0 d:/toolchain/gcc-arm-none-eabi/bin/../lib/gcc/arm-none-eabi/9.2.1/../../../../arm-none-eabi/lib/thumb/v7e-m+fp/hard\libc_nano.a(lib_a-strlen.o)
 .bss           0x20001638        0x0 d:/toolchain/gcc-arm-none-eabi/bin/../lib/gcc/arm-none-eabi/9.2.1/../../../../arm-none-eabi/lib/thumb/v7e-m+fp/hard\libc_nano.a(lib_a-strtod.o)
 .bss           0x20001638        0x0 d:/toolchain/gcc-arm-none-eabi/bin/../lib/gcc/arm-none-eabi/9.2.1/../../../../arm-none-eabi/lib/thumb/v7e-m+fp/hard\libc_nano.a(lib_a-strtol.o)
 .bss           0x20001638        0x0 d:/toolchain/gcc-arm-none-eabi/bin/../lib/gcc/arm-none-eabi/9.2.1/../../../../arm-none-eabi/lib/thumb/v7e-m+fp/hard\libc_nano.a(lib_a-vprintf.o)
 .bss           0x20001638        0x0 d:/toolchain/gcc-arm-none-eabi/bin/../lib/gcc/arm-none-eabi/9.2.1/../../../../arm-none-eabi/lib/thumb/v7e-m+fp/hard\libc_nano.a(lib_a-dtoa.o)
 .bss           0x20001638        0x0 d:/toolchain/gcc-arm-none-eabi/bin/../lib/gcc/arm-none-eabi/9.2.1/../../../../arm-none-eabi/lib/thumb/v7e-m+fp/hard\libc_nano.a(lib_a-fflush.o)
 .bss           0x20001638        0x0 d:/toolchain/gcc-arm-none-eabi/bin/../lib/gcc/arm-none-eabi/9.2.1/../../../../arm-none-eabi/lib/thumb/v7e-m+fp/hard\libc_nano.a(lib_a-findfp.o)
 .bss           0x20001638        0x0 d:/toolchain/gcc-arm-none-eabi/bin/../lib/gcc/arm-none-eabi/9.2.1/../../../../arm-none-eabi/lib/thumb/v7e-m+fp/hard\libc_nano.a(lib_a-fprintf.o)
 .bss           0x20001638        0x0 d:/toolchain/gcc-arm-none-eabi/bin/../lib/gcc/arm-none-eabi/9.2.1/../../../../arm-none-eabi/lib/thumb/v7e-m+fp/hard\libc_nano.a(lib_a-fwalk.o)
 .bss           0x20001638        0x0 d:/toolchain/gcc-arm-none-eabi/bin/../lib/gcc/arm-none-eabi/9.2.1/../../../../arm-none-eabi/lib/thumb/v7e-m+fp/hard\libc_nano.a(lib_a-gdtoa-gethex.o)
 .bss           0x20001638        0x0 d:/toolchain/gcc-arm-none-eabi/bin/../lib/gcc/arm-none-eabi/9.2.1/../../../../arm-none-eabi/lib/thumb/v7e-m+fp/hard\libc_nano.a(lib_a-gdtoa-hexnan.o)
 .bss           0x20001638        0x0 d:/toolchain/gcc-arm-none-eabi/bin/../lib/gcc/arm-none-eabi/9.2.1/../../../../arm-none-eabi/lib/thumb/v7e-m+fp/hard\libc_nano.a(lib_a-getc.o)
 .bss           0x20001638        0x0 d:/toolchain/gcc-arm-none-eabi/bin/../lib/gcc/arm-none-eabi/9.2.1/../../../../arm-none-eabi/lib/thumb/v7e-m+fp/hard\libc_nano.a(lib_a-lnumeric.o)
 .bss           0x20001638        0x0 d:/toolchain/gcc-arm-none-eabi/bin/../lib/gcc/arm-none-eabi/9.2.1/../../../../arm-none-eabi/lib/thumb/v7e-m+fp/hard\libc_nano.a(lib_a-locale.o)
 .bss           0x20001638        0x0 d:/toolchain/gcc-arm-none-eabi/bin/../lib/gcc/arm-none-eabi/9.2.1/../../../../arm-none-eabi/lib/thumb/v7e-m+fp/hard\libc_nano.a(lib_a-localeconv.o)
 .bss           0x20001638        0x0 d:/toolchain/gcc-arm-none-eabi/bin/../lib/gcc/arm-none-eabi/9.2.1/../../../../arm-none-eabi/lib/thumb/v7e-m+fp/hard\libc_nano.a(lib_a-lock.o)
 .bss           0x20001638        0x0 d:/toolchain/gcc-arm-none-eabi/bin/../lib/gcc/arm-none-eabi/9.2.1/../../../../arm-none-eabi/lib/thumb/v7e-m+fp/hard\libc_nano.a(lib_a-makebuf.o)
 .bss           0x20001638        0x0 d:/toolchain/gcc-arm-none-eabi/bin/../lib/gcc/arm-none-eabi/9.2.1/../../../../arm-none-eabi/lib/thumb/v7e-m+fp/hard\libc_nano.a(lib_a-mbtowc_r.o)
 .bss           0x20001638        0x0 d:/toolchain/gcc-arm-none-eabi/bin/../lib/gcc/arm-none-eabi/9.2.1/../../../../arm-none-eabi/lib/thumb/v7e-m+fp/hard\libc_nano.a(lib_a-memchr.o)
 .bss           0x20001638        0x0 d:/toolchain/gcc-arm-none-eabi/bin/../lib/gcc/arm-none-eabi/9.2.1/../../../../arm-none-eabi/lib/thumb/v7e-m+fp/hard\libc_nano.a(lib_a-mprec.o)
 .bss           0x20001638        0x0 d:/toolchain/gcc-arm-none-eabi/bin/../lib/gcc/arm-none-eabi/9.2.1/../../../../arm-none-eabi/lib/thumb/v7e-m+fp/hard\libc_nano.a(lib_a-nano-callocr.o)
 .bss           0x20001638        0x0 d:/toolchain/gcc-arm-none-eabi/bin/../lib/gcc/arm-none-eabi/9.2.1/../../../../arm-none-eabi/lib/thumb/v7e-m+fp/hard\libc_nano.a(lib_a-nano-svfprintf.o)
 .bss           0x20001638        0x0 d:/toolchain/gcc-arm-none-eabi/bin/../lib/gcc/arm-none-eabi/9.2.1/../../../../arm-none-eabi/lib/thumb/v7e-m+fp/hard\libc_nano.a(lib_a-nano-vfprintf.o)
 .bss           0x20001638        0x0 d:/toolchain/gcc-arm-none-eabi/bin/../lib/gcc/arm-none-eabi/9.2.1/../../../../arm-none-eabi/lib/thumb/v7e-m+fp/hard\libc_nano.a(lib_a-rget.o)
 .bss           0x20001638        0x0 d:/toolchain/gcc-arm-none-eabi/bin/../lib/gcc/arm-none-eabi/9.2.1/../../../../arm-none-eabi/lib/thumb/v7e-m+fp/hard\libc_nano.a(lib_a-s_nan.o)
 .bss           0x20001638        0x0 d:/toolchain/gcc-arm-none-eabi/bin/../lib/gcc/arm-none-eabi/9.2.1/../../../../arm-none-eabi/lib/thumb/v7e-m+fp/hard\libc_nano.a(lib_a-stdio.o)
 .bss           0x20001638        0x0 d:/toolchain/gcc-arm-none-eabi/bin/../lib/gcc/arm-none-eabi/9.2.1/../../../../arm-none-eabi/lib/thumb/v7e-m+fp/hard\libc_nano.a(lib_a-strncmp.o)
 .bss           0x20001638        0x0 d:/toolchain/gcc-arm-none-eabi/bin/../lib/gcc/arm-none-eabi/9.2.1/../../../../arm-none-eabi/lib/thumb/v7e-m+fp/hard\libc_nano.a(lib_a-wbuf.o)
 .bss           0x20001638        0x0 d:/toolchain/gcc-arm-none-eabi/bin/../lib/gcc/arm-none-eabi/9.2.1/../../../../arm-none-eabi/lib/thumb/v7e-m+fp/hard\libc_nano.a(lib_a-wctomb_r.o)
 .bss           0x20001638        0x0 d:/toolchain/gcc-arm-none-eabi/bin/../lib/gcc/arm-none-eabi/9.2.1/../../../../arm-none-eabi/lib/thumb/v7e-m+fp/hard\libc_nano.a(lib_a-writer.o)
 .bss           0x20001638        0x0 d:/toolchain/gcc-arm-none-eabi/bin/../lib/gcc/arm-none-eabi/9.2.1/../../../../arm-none-eabi/lib/thumb/v7e-m+fp/hard\libc_nano.a(lib_a-wsetup.o)
 .bss           0x20001638        0x0 d:/toolchain/gcc-arm-none-eabi/bin/../lib/gcc/arm-none-eabi/9.2.1/../../../../arm-none-eabi/lib/thumb/v7e-m+fp/hard\libc_nano.a(lib_a-closer.o)
 .bss           0x20001638        0x0 d:/toolchain/gcc-arm-none-eabi/bin/../lib/gcc/arm-none-eabi/9.2.1/../../../../arm-none-eabi/lib/thumb/v7e-m+fp/hard\libc_nano.a(lib_a-fstatr.o)
 .bss           0x20001638        0x0 d:/toolchain/gcc-arm-none-eabi/bin/../lib/gcc/arm-none-eabi/9.2.1/../../../../arm-none-eabi/lib/thumb/v7e-m+fp/hard\libc_nano.a(lib_a-fvwrite.o)
 .bss           0x20001638        0x0 d:/toolchain/gcc-arm-none-eabi/bin/../lib/gcc/arm-none-eabi/9.2.1/../../../../arm-none-eabi/lib/thumb/v7e-m+fp/hard\libc_nano.a(lib_a-isattyr.o)
 .bss           0x20001638        0x0 d:/toolchain/gcc-arm-none-eabi/bin/../lib/gcc/arm-none-eabi/9.2.1/../../../../arm-none-eabi/lib/thumb/v7e-m+fp/hard\libc_nano.a(lib_a-lseekr.o)
 .bss           0x20001638        0x0 d:/toolchain/gcc-arm-none-eabi/bin/../lib/gcc/arm-none-eabi/9.2.1/../../../../arm-none-eabi/lib/thumb/v7e-m+fp/hard\libc_nano.a(lib_a-memmove.o)
 .bss           0x20001638        0x0 d:/toolchain/gcc-arm-none-eabi/bin/../lib/gcc/arm-none-eabi/9.2.1/../../../../arm-none-eabi/lib/thumb/v7e-m+fp/hard\libc_nano.a(lib_a-nano-reallocr.o)
 .bss           0x20001638        0x0 d:/toolchain/gcc-arm-none-eabi/bin/../lib/gcc/arm-none-eabi/9.2.1/../../../../arm-none-eabi/lib/thumb/v7e-m+fp/hard\libc_nano.a(lib_a-readr.o)
 .bss           0x20001638        0x0 d:/toolchain/gcc-arm-none-eabi/bin/../lib/gcc/arm-none-eabi/9.2.1/../../../../arm-none-eabi/lib/thumb/v7e-m+fp/hard\libc_nano.a(lib_a-refill.o)
 .bss           0x20001638        0x0 d:/toolchain/gcc-arm-none-eabi/bin/../lib/gcc/arm-none-eabi/9.2.1/../../../../arm-none-eabi/lib/thumb/v7e-m+fp/hard\libc_nano.a(lib_a-nano-msizer.o)
 .bss           0x20001638        0x0 d:/toolchain/gcc-arm-none-eabi/bin/../lib/gcc/arm-none-eabi/9.2.1/thumb/v7e-m+fp/hard\libgcc.a(_arm_muldf3.o)
 .bss           0x20001638        0x0 d:/toolchain/gcc-arm-none-eabi/bin/../lib/gcc/arm-none-eabi/9.2.1/thumb/v7e-m+fp/hard\libgcc.a(_arm_addsubdf3.o)
 .bss           0x20001638        0x0 d:/toolchain/gcc-arm-none-eabi/bin/../lib/gcc/arm-none-eabi/9.2.1/thumb/v7e-m+fp/hard\libgcc.a(_arm_muldivdf3.o)
 .bss           0x20001638        0x0 d:/toolchain/gcc-arm-none-eabi/bin/../lib/gcc/arm-none-eabi/9.2.1/thumb/v7e-m+fp/hard\libgcc.a(_arm_cmpdf2.o)
 .bss           0x20001638        0x0 d:/toolchain/gcc-arm-none-eabi/bin/../lib/gcc/arm-none-eabi/9.2.1/thumb/v7e-m+fp/hard\libgcc.a(_arm_unorddf2.o)
 .bss           0x20001638        0x0 d:/toolchain/gcc-arm-none-eabi/bin/../lib/gcc/arm-none-eabi/9.2.1/thumb/v7e-m+fp/hard\libgcc.a(_arm_fixdfsi.o)
 .bss           0x20001638        0x0 d:/toolchain/gcc-arm-none-eabi/bin/../lib/gcc/arm-none-eabi/9.2.1/thumb/v7e-m+fp/hard\libgcc.a(_arm_fixunsdfsi.o)
 .bss           0x20001638        0x0 d:/toolchain/gcc-arm-none-eabi/bin/../lib/gcc/arm-none-eabi/9.2.1/thumb/v7e-m+fp/hard\libgcc.a(_arm_truncdfsf2.o)
 .bss           0x20001638        0x0 d:/toolchain/gcc-arm-none-eabi/bin/../lib/gcc/arm-none-eabi/9.2.1/thumb/v7e-m+fp/hard\libgcc.a(_fixdfdi.o)
 .bss           0x20001638        0x0 d:/toolchain/gcc-arm-none-eabi/bin/../lib/gcc/arm-none-eabi/9.2.1/thumb/v7e-m+fp/hard\libgcc.a(_fixunsdfdi.o)
 .bss           0x20001638        0x0 d:/toolchain/gcc-arm-none-eabi/bin/../lib/gcc/arm-none-eabi/9.2.1/../../../../arm-none-eabi/lib/thumb/v7e-m+fp/hard\libnosys.a(close.o)
 .bss           0x20001638        0x0 d:/toolchain/gcc-arm-none-eabi/bin/../lib/gcc/arm-none-eabi/9.2.1/../../../../arm-none-eabi/lib/thumb/v7e-m+fp/hard\libnosys.a(fstat.o)
 .bss           0x20001638        0x0 d:/toolchain/gcc-arm-none-eabi/bin/../lib/gcc/arm-none-eabi/9.2.1/../../../../arm-none-eabi/lib/thumb/v7e-m+fp/hard\libnosys.a(isatty.o)
 .bss           0x20001638        0x0 d:/toolchain/gcc-arm-none-eabi/bin/../lib/gcc/arm-none-eabi/9.2.1/../../../../arm-none-eabi/lib/thumb/v7e-m+fp/hard\libnosys.a(lseek.o)
 .bss           0x20001638        0x0 d:/toolchain/gcc-arm-none-eabi/bin/../lib/gcc/arm-none-eabi/9.2.1/../../../../arm-none-eabi/lib/thumb/v7e-m+fp/hard\libnosys.a(_exit.o)
 .bss           0x20001638        0x0 d:/toolchain/gcc-arm-none-eabi/bin/../lib/gcc/arm-none-eabi/9.2.1/thumb/v7e-m+fp/hard/crtend.o
 .bss           0x20001638        0x0 d:/toolchain/gcc-arm-none-eabi/bin/../lib/gcc/arm-none-eabi/9.2.1/thumb/v7e-m+fp/hard/crtn.o
 *(.bss*)
 .bss.__malloc_current_mallinfo
                0x20001638       0x28 d:/toolchain/gcc-arm-none-eabi/bin/../lib/gcc/arm-none-eabi/9.2.1/../../../../arm-none-eabi/lib/thumb/v7e-m+fp/hard\libc_nano.a(lib_a-nano-mallinfor.o)
                0x20001638                __malloc_current_mallinfo
 .bss.__malloc_free_list
                0x20001660        0x4 d:/toolchain/gcc-arm-none-eabi/bin/../lib/gcc/arm-none-eabi/9.2.1/../../../../arm-none-eabi/lib/thumb/v7e-m+fp/hard\libc_nano.a(lib_a-nano-mallocr.o)
                0x20001660                __malloc_free_list
 .bss.__malloc_sbrk_start
                0x20001664        0x4 d:/toolchain/gcc-arm-none-eabi/bin/../lib/gcc/arm-none-eabi/9.2.1/../../../../arm-none-eabi/lib/thumb/v7e-m+fp/hard\libc_nano.a(lib_a-nano-mallocr.o)
                0x20001664                __malloc_sbrk_start
 .bss._PathLocale
                0x20001668        0x4 d:/toolchain/gcc-arm-none-eabi/bin/../lib/gcc/arm-none-eabi/9.2.1/../../../../arm-none-eabi/lib/thumb/v7e-m+fp/hard\libc_nano.a(lib_a-locale.o)
                0x20001668                _PathLocale
 *(COMMON)
 COMMON         0x2000166c        0x4 build/stm32f4_HAL/stm32f4xx_hal.o
                0x2000166c                uwTick
 COMMON         0x20001670        0x4 d:/toolchain/gcc-arm-none-eabi/bin/../lib/gcc/arm-none-eabi/9.2.1/../../../../arm-none-eabi/lib/thumb/v7e-m+fp/hard\libc_nano.a(lib_a-reent.o)
                0x20001670                errno
 COMMON         0x20001674        0x9 d:/toolchain/gcc-arm-none-eabi/bin/../lib/gcc/arm-none-eabi/9.2.1/../../../../arm-none-eabi/lib/thumb/v7e-m+fp/hard\libc_nano.a(lib_a-lock.o)
                0x20001674                __lock___atexit_recursive_mutex
                0x20001675                __lock___arc4random_mutex
                0x20001676                __lock___env_recursive_mutex
                0x20001677                __lock___sinit_recursive_mutex
                0x20001678                __lock___malloc_recursive_mutex
                0x20001679                __lock___at_quick_exit_mutex
                0x2000167a                __lock___dd_hash_mutex
                0x2000167b                __lock___tz_mutex
                0x2000167c                __lock___sfp_recursive_mutex
                0x20001680                . = ALIGN (0x4)
 *fill*         0x2000167d        0x3 
                0x20001680                _ebss = .
                0x20001680                __bss_end__ = _ebss

._user_heap_stack
                0x20001680     0xa000 load address 0x08017b40
                0x20001680                . = ALIGN (0x4)
                [!provide]                PROVIDE (end = .)
                [!provide]                PROVIDE (_end = .)
                0x20001680                __HeapBase = .
                0x20009680                . = (. + _Min_Heap_Size)
 *fill*         0x20001680     0x8000 
                0x20009680                __HeapLimit = .
                0x2000b680                . = (. + _Min_Stack_Size)
 *fill*         0x20009680     0x2000 
                0x2000b680                . = ALIGN (0x4)

/DISCARD/
 libc.a(*)
 libm.a(*)
 libgcc.a(*)

.ARM.attributes
                0x00000000       0x30
 *(.ARM.attributes)
 .ARM.attributes
                0x00000000       0x1e d:/toolchain/gcc-arm-none-eabi/bin/../lib/gcc/arm-none-eabi/9.2.1/thumb/v7e-m+fp/hard/crti.o
 .ARM.attributes
                0x0000001e       0x34 d:/toolchain/gcc-arm-none-eabi/bin/../lib/gcc/arm-none-eabi/9.2.1/thumb/v7e-m+fp/hard/crtbegin.o
 .ARM.attributes
                0x00000052       0x1c d:/toolchain/gcc-arm-none-eabi/bin/../lib/gcc/arm-none-eabi/9.2.1/../../../../arm-none-eabi/lib/thumb/v7e-m+fp/hard/crt0.o
 .ARM.attributes
                0x0000006e       0x34 build/cmd_line_buffer.o
 .ARM.attributes
                0x000000a2       0x34 build/cmd_parser.o
 .ARM.attributes
                0x000000d6       0x34 build/light.o
 .ARM.attributes
                0x0000010a       0x34 build/potentiometer.o
 .ARM.attributes
                0x0000013e       0x34 build/led_rgb.o
 .ARM.attributes
                0x00000172       0x34 build/button.o
 .ARM.attributes
                0x000001a6       0x34 build/dimmer_task.o
 .ARM.attributes
                0x000001da       0x34 build/heartbeat_task.o
 .ARM.attributes
                0x0000020e       0x34 build/stm32f4xx_hal_msp.o
 .ARM.attributes
                0x00000242       0x34 build/main.o
 .ARM.attributes
                0x00000276       0x34 build/stm32f4xx_it.o
 .ARM.attributes
                0x000002aa       0x34 build/system_stm32f4xx.o
 .ARM.attributes
                0x000002de       0x34 build/uart.o
 .ARM.attributes
                0x00000312       0x34 build/cmd_task.o
 .ARM.attributes
                0x00000346       0x21 build/startup_stm32f446xx.o
 .ARM.attributes
                0x00000367       0x34 build/stm32f4_HAL/stm32f4xx_hal.o
 .ARM.attributes
                0x0000039b       0x34 build/stm32f4_HAL/stm32f4xx_hal_dma.o
 .ARM.attributes
                0x000003cf       0x34 build/stm32f4_HAL/stm32f4xx_hal_adc.o
 .ARM.attributes
                0x00000403       0x34 build/stm32f4_HAL/stm32f4xx_hal_adc_ex.o
 .ARM.attributes
                0x00000437       0x34 build/stm32f4_HAL/stm32f4xx_hal_gpio.o
 .ARM.attributes
                0x0000046b       0x34 build/stm32f4_HAL/stm32f4xx_ll_gpio.o
 .ARM.attributes
                0x0000049f       0x34 build/stm32f4_HAL/stm32f4xx_ll_usart.o
 .ARM.attributes
                0x000004d3       0x34 build/stm32f4_HAL/stm32f4xx_ll_dma.o
 .ARM.attributes
                0x00000507       0x34 build/stm32f4_HAL/stm32f4xx_ll_rcc.o
 .ARM.attributes
                0x0000053b       0x34 build/stm32f4_HAL/stm32f4xx_hal_i2c.o
 .ARM.attributes
                0x0000056f       0x34 build/stm32f4_HAL/stm32f4xx_hal_i2c_ex.o
 .ARM.attributes
                0x000005a3       0x34 build/stm32f4_HAL/stm32f4xx_hal_tim.o
 .ARM.attributes
                0x000005d7       0x34 build/stm32f4_HAL/stm32f4xx_hal_tim_ex.o
 .ARM.attributes
                0x0000060b       0x39 build/stm32f4_HAL/stm32f4xx_hal_rtc.o
 .ARM.attributes
                0x00000644       0x34 build/stm32f4_HAL/stm32f4xx_hal_rcc.o
 .ARM.attributes
                0x00000678       0x34 build/stm32f4_HAL/stm32f4xx_hal_rcc_ex.o
 .ARM.attributes
                0x000006ac       0x34 build/stm32f4_HAL/stm32f4xx_hal_pwr.o
 .ARM.attributes
                0x000006e0       0x34 build/stm32f4_HAL/stm32f4xx_hal_pwr_ex.o
 .ARM.attributes
                0x00000714       0x34 build/stm32f4_HAL/stm32f4xx_hal_cortex.o
 .ARM.attributes
                0x00000748       0x34 build/stm32f4_HAL/stm32f4xx_hal_spi.o
 .ARM.attributes
                0x0000077c       0x39 build/FreeRTOS/croutine.o
 .ARM.attributes
                0x000007b5       0x34 build/FreeRTOS/event_groups.o
 .ARM.attributes
                0x000007e9       0x34 build/FreeRTOS/list.o
 .ARM.attributes
                0x0000081d       0x34 build/FreeRTOS/queue.o
 .ARM.attributes
                0x00000851       0x34 build/FreeRTOS/tasks.o
 .ARM.attributes
                0x00000885       0x34 build/FreeRTOS/timers.o
 .ARM.attributes
                0x000008b9       0x34 build/FreeRTOS/stream_buffer.o
 .ARM.attributes
                0x000008ed       0x34 build/FreeRTOS/cmsis_os2.o
 .ARM.attributes
                0x00000921       0x34 build/FreeRTOS/clib_arm.o
 .ARM.attributes
                0x00000955       0x34 build/FreeRTOS/os_systick.o
 .ARM.attributes
                0x00000989       0x34 build/FreeRTOS/heap_useNewlib.o
 .ARM.attributes
                0x000009bd       0x34 build/FreeRTOS/port.o
 .ARM.attributes
                0x000009f1       0x1e d:/toolchain/gcc-arm-none-eabi/bin/../lib/gcc/arm-none-eabi/9.2.1/thumb/v7e-m+fp/hard\libgcc.a(_aeabi_ldivmod.o)
 .ARM.attributes
                0x00000a0f       0x1e d:/toolchain/gcc-arm-none-eabi/bin/../lib/gcc/arm-none-eabi/9.2.1/thumb/v7e-m+fp/hard\libgcc.a(_aeabi_uldivmod.o)
 .ARM.attributes
                0x00000a2d       0x34 d:/toolchain/gcc-arm-none-eabi/bin/../lib/gcc/arm-none-eabi/9.2.1/thumb/v7e-m+fp/hard\libgcc.a(_udivmoddi4.o)
 .ARM.attributes
                0x00000a61       0x1e d:/toolchain/gcc-arm-none-eabi/bin/../lib/gcc/arm-none-eabi/9.2.1/thumb/v7e-m+fp/hard\libgcc.a(_dvmd_tls.o)
 .ARM.attributes
                0x00000a7f       0x34 d:/toolchain/gcc-arm-none-eabi/bin/../lib/gcc/arm-none-eabi/9.2.1/../../../../arm-none-eabi/lib/thumb/v7e-m+fp/hard\libc_nano.a(lib_a-atoi.o)
 .ARM.attributes
                0x00000ab3       0x32 d:/toolchain/gcc-arm-none-eabi/bin/../lib/gcc/arm-none-eabi/9.2.1/../../../../arm-none-eabi/lib/thumb/v7e-m+fp/hard\libc_nano.a(lib_a-ctype_.o)
 .ARM.attributes
                0x00000ae5       0x34 d:/toolchain/gcc-arm-none-eabi/bin/../lib/gcc/arm-none-eabi/9.2.1/../../../../arm-none-eabi/lib/thumb/v7e-m+fp/hard\libc_nano.a(lib_a-exit.o)
 .ARM.attributes
                0x00000b19       0x34 d:/toolchain/gcc-arm-none-eabi/bin/../lib/gcc/arm-none-eabi/9.2.1/../../../../arm-none-eabi/lib/thumb/v7e-m+fp/hard\libc_nano.a(lib_a-getchar.o)
 .ARM.attributes
                0x00000b4d       0x32 d:/toolchain/gcc-arm-none-eabi/bin/../lib/gcc/arm-none-eabi/9.2.1/../../../../arm-none-eabi/lib/thumb/v7e-m+fp/hard\libc_nano.a(lib_a-impure.o)
 .ARM.attributes
                0x00000b7f       0x34 d:/toolchain/gcc-arm-none-eabi/bin/../lib/gcc/arm-none-eabi/9.2.1/../../../../arm-none-eabi/lib/thumb/v7e-m+fp/hard\libc_nano.a(lib_a-init.o)
 .ARM.attributes
                0x00000bb3       0x34 d:/toolchain/gcc-arm-none-eabi/bin/../lib/gcc/arm-none-eabi/9.2.1/../../../../arm-none-eabi/lib/thumb/v7e-m+fp/hard\libc_nano.a(lib_a-malloc.o)
 .ARM.attributes
                0x00000be7       0x34 d:/toolchain/gcc-arm-none-eabi/bin/../lib/gcc/arm-none-eabi/9.2.1/../../../../arm-none-eabi/lib/thumb/v7e-m+fp/hard\libc_nano.a(lib_a-memcpy-stub.o)
 .ARM.attributes
                0x00000c1b       0x34 d:/toolchain/gcc-arm-none-eabi/bin/../lib/gcc/arm-none-eabi/9.2.1/../../../../arm-none-eabi/lib/thumb/v7e-m+fp/hard\libc_nano.a(lib_a-memset.o)
 .ARM.attributes
                0x00000c4f       0x34 d:/toolchain/gcc-arm-none-eabi/bin/../lib/gcc/arm-none-eabi/9.2.1/../../../../arm-none-eabi/lib/thumb/v7e-m+fp/hard\libc_nano.a(lib_a-mstats.o)
 .ARM.attributes
                0x00000c83       0x34 d:/toolchain/gcc-arm-none-eabi/bin/../lib/gcc/arm-none-eabi/9.2.1/../../../../arm-none-eabi/lib/thumb/v7e-m+fp/hard\libc_nano.a(lib_a-nano-freer.o)
 .ARM.attributes
                0x00000cb7       0x34 d:/toolchain/gcc-arm-none-eabi/bin/../lib/gcc/arm-none-eabi/9.2.1/../../../../arm-none-eabi/lib/thumb/v7e-m+fp/hard\libc_nano.a(lib_a-nano-mallinfor.o)
 .ARM.attributes
                0x00000ceb       0x34 d:/toolchain/gcc-arm-none-eabi/bin/../lib/gcc/arm-none-eabi/9.2.1/../../../../arm-none-eabi/lib/thumb/v7e-m+fp/hard\libc_nano.a(lib_a-nano-mallocr.o)
 .ARM.attributes
                0x00000d1f       0x34 d:/toolchain/gcc-arm-none-eabi/bin/../lib/gcc/arm-none-eabi/9.2.1/../../../../arm-none-eabi/lib/thumb/v7e-m+fp/hard\libc_nano.a(lib_a-nano-malloptr.o)
 .ARM.attributes
                0x00000d53       0x34 d:/toolchain/gcc-arm-none-eabi/bin/../lib/gcc/arm-none-eabi/9.2.1/../../../../arm-none-eabi/lib/thumb/v7e-m+fp/hard\libc_nano.a(lib_a-nano-mallstatsr.o)
 .ARM.attributes
                0x00000d87       0x34 d:/toolchain/gcc-arm-none-eabi/bin/../lib/gcc/arm-none-eabi/9.2.1/../../../../arm-none-eabi/lib/thumb/v7e-m+fp/hard\libc_nano.a(lib_a-nano-vfprintf_float.o)
 .ARM.attributes
                0x00000dbb       0x34 d:/toolchain/gcc-arm-none-eabi/bin/../lib/gcc/arm-none-eabi/9.2.1/../../../../arm-none-eabi/lib/thumb/v7e-m+fp/hard\libc_nano.a(lib_a-nano-vfprintf_i.o)
 .ARM.attributes
                0x00000def       0x34 d:/toolchain/gcc-arm-none-eabi/bin/../lib/gcc/arm-none-eabi/9.2.1/../../../../arm-none-eabi/lib/thumb/v7e-m+fp/hard\libc_nano.a(lib_a-nano-vfscanf_float.o)
 .ARM.attributes
                0x00000e23       0x34 d:/toolchain/gcc-arm-none-eabi/bin/../lib/gcc/arm-none-eabi/9.2.1/../../../../arm-none-eabi/lib/thumb/v7e-m+fp/hard\libc_nano.a(lib_a-printf.o)
 .ARM.attributes
                0x00000e57       0x34 d:/toolchain/gcc-arm-none-eabi/bin/../lib/gcc/arm-none-eabi/9.2.1/../../../../arm-none-eabi/lib/thumb/v7e-m+fp/hard\libc_nano.a(lib_a-reent.o)
 .ARM.attributes
                0x00000e8b       0x34 d:/toolchain/gcc-arm-none-eabi/bin/../lib/gcc/arm-none-eabi/9.2.1/../../../../arm-none-eabi/lib/thumb/v7e-m+fp/hard\libc_nano.a(lib_a-sbrkr.o)
 .ARM.attributes
                0x00000ebf       0x34 d:/toolchain/gcc-arm-none-eabi/bin/../lib/gcc/arm-none-eabi/9.2.1/../../../../arm-none-eabi/lib/thumb/v7e-m+fp/hard\libc_nano.a(lib_a-setvbuf.o)
 .ARM.attributes
                0x00000ef3       0x34 d:/toolchain/gcc-arm-none-eabi/bin/../lib/gcc/arm-none-eabi/9.2.1/../../../../arm-none-eabi/lib/thumb/v7e-m+fp/hard\libc_nano.a(lib_a-sf_nan.o)
 .ARM.attributes
                0x00000f27       0x34 d:/toolchain/gcc-arm-none-eabi/bin/../lib/gcc/arm-none-eabi/9.2.1/../../../../arm-none-eabi/lib/thumb/v7e-m+fp/hard\libc_nano.a(lib_a-sprintf.o)
 .ARM.attributes
                0x00000f5b       0x1c d:/toolchain/gcc-arm-none-eabi/bin/../lib/gcc/arm-none-eabi/9.2.1/../../../../arm-none-eabi/lib/thumb/v7e-m+fp/hard\libc_nano.a(lib_a-strcmp.o)
 .ARM.attributes
                0x00000f77       0x17 d:/toolchain/gcc-arm-none-eabi/bin/../lib/gcc/arm-none-eabi/9.2.1/../../../../arm-none-eabi/lib/thumb/v7e-m+fp/hard\libc_nano.a(lib_a-strlen.o)
 .ARM.attributes
                0x00000f8e       0x34 d:/toolchain/gcc-arm-none-eabi/bin/../lib/gcc/arm-none-eabi/9.2.1/../../../../arm-none-eabi/lib/thumb/v7e-m+fp/hard\libc_nano.a(lib_a-strtod.o)
 .ARM.attributes
                0x00000fc2       0x34 d:/toolchain/gcc-arm-none-eabi/bin/../lib/gcc/arm-none-eabi/9.2.1/../../../../arm-none-eabi/lib/thumb/v7e-m+fp/hard\libc_nano.a(lib_a-strtol.o)
 .ARM.attributes
                0x00000ff6       0x34 d:/toolchain/gcc-arm-none-eabi/bin/../lib/gcc/arm-none-eabi/9.2.1/../../../../arm-none-eabi/lib/thumb/v7e-m+fp/hard\libc_nano.a(lib_a-vprintf.o)
 .ARM.attributes
                0x0000102a       0x34 d:/toolchain/gcc-arm-none-eabi/bin/../lib/gcc/arm-none-eabi/9.2.1/../../../../arm-none-eabi/lib/thumb/v7e-m+fp/hard\libc_nano.a(lib_a-dtoa.o)
 .ARM.attributes
                0x0000105e       0x34 d:/toolchain/gcc-arm-none-eabi/bin/../lib/gcc/arm-none-eabi/9.2.1/../../../../arm-none-eabi/lib/thumb/v7e-m+fp/hard\libc_nano.a(lib_a-fflush.o)
 .ARM.attributes
                0x00001092       0x34 d:/toolchain/gcc-arm-none-eabi/bin/../lib/gcc/arm-none-eabi/9.2.1/../../../../arm-none-eabi/lib/thumb/v7e-m+fp/hard\libc_nano.a(lib_a-findfp.o)
 .ARM.attributes
                0x000010c6       0x34 d:/toolchain/gcc-arm-none-eabi/bin/../lib/gcc/arm-none-eabi/9.2.1/../../../../arm-none-eabi/lib/thumb/v7e-m+fp/hard\libc_nano.a(lib_a-fprintf.o)
 .ARM.attributes
                0x000010fa       0x34 d:/toolchain/gcc-arm-none-eabi/bin/../lib/gcc/arm-none-eabi/9.2.1/../../../../arm-none-eabi/lib/thumb/v7e-m+fp/hard\libc_nano.a(lib_a-fwalk.o)
 .ARM.attributes
                0x0000112e       0x34 d:/toolchain/gcc-arm-none-eabi/bin/../lib/gcc/arm-none-eabi/9.2.1/../../../../arm-none-eabi/lib/thumb/v7e-m+fp/hard\libc_nano.a(lib_a-gdtoa-gethex.o)
 .ARM.attributes
                0x00001162       0x34 d:/toolchain/gcc-arm-none-eabi/bin/../lib/gcc/arm-none-eabi/9.2.1/../../../../arm-none-eabi/lib/thumb/v7e-m+fp/hard\libc_nano.a(lib_a-gdtoa-hexnan.o)
 .ARM.attributes
                0x00001196       0x34 d:/toolchain/gcc-arm-none-eabi/bin/../lib/gcc/arm-none-eabi/9.2.1/../../../../arm-none-eabi/lib/thumb/v7e-m+fp/hard\libc_nano.a(lib_a-getc.o)
 .ARM.attributes
                0x000011ca       0x34 d:/toolchain/gcc-arm-none-eabi/bin/../lib/gcc/arm-none-eabi/9.2.1/../../../../arm-none-eabi/lib/thumb/v7e-m+fp/hard\libc_nano.a(lib_a-lnumeric.o)
 .ARM.attributes
                0x000011fe       0x34 d:/toolchain/gcc-arm-none-eabi/bin/../lib/gcc/arm-none-eabi/9.2.1/../../../../arm-none-eabi/lib/thumb/v7e-m+fp/hard\libc_nano.a(lib_a-locale.o)
 .ARM.attributes
                0x00001232       0x34 d:/toolchain/gcc-arm-none-eabi/bin/../lib/gcc/arm-none-eabi/9.2.1/../../../../arm-none-eabi/lib/thumb/v7e-m+fp/hard\libc_nano.a(lib_a-localeconv.o)
 .ARM.attributes
                0x00001266       0x34 d:/toolchain/gcc-arm-none-eabi/bin/../lib/gcc/arm-none-eabi/9.2.1/../../../../arm-none-eabi/lib/thumb/v7e-m+fp/hard\libc_nano.a(lib_a-lock.o)
 .ARM.attributes
                0x0000129a       0x34 d:/toolchain/gcc-arm-none-eabi/bin/../lib/gcc/arm-none-eabi/9.2.1/../../../../arm-none-eabi/lib/thumb/v7e-m+fp/hard\libc_nano.a(lib_a-makebuf.o)
 .ARM.attributes
                0x000012ce       0x34 d:/toolchain/gcc-arm-none-eabi/bin/../lib/gcc/arm-none-eabi/9.2.1/../../../../arm-none-eabi/lib/thumb/v7e-m+fp/hard\libc_nano.a(lib_a-mbtowc_r.o)
 .ARM.attributes
                0x00001302       0x1c d:/toolchain/gcc-arm-none-eabi/bin/../lib/gcc/arm-none-eabi/9.2.1/../../../../arm-none-eabi/lib/thumb/v7e-m+fp/hard\libc_nano.a(lib_a-memchr.o)
 .ARM.attributes
                0x0000131e       0x34 d:/toolchain/gcc-arm-none-eabi/bin/../lib/gcc/arm-none-eabi/9.2.1/../../../../arm-none-eabi/lib/thumb/v7e-m+fp/hard\libc_nano.a(lib_a-mprec.o)
 .ARM.attributes
                0x00001352       0x34 d:/toolchain/gcc-arm-none-eabi/bin/../lib/gcc/arm-none-eabi/9.2.1/../../../../arm-none-eabi/lib/thumb/v7e-m+fp/hard\libc_nano.a(lib_a-nano-callocr.o)
 .ARM.attributes
                0x00001386       0x34 d:/toolchain/gcc-arm-none-eabi/bin/../lib/gcc/arm-none-eabi/9.2.1/../../../../arm-none-eabi/lib/thumb/v7e-m+fp/hard\libc_nano.a(lib_a-nano-svfprintf.o)
 .ARM.attributes
                0x000013ba       0x34 d:/toolchain/gcc-arm-none-eabi/bin/../lib/gcc/arm-none-eabi/9.2.1/../../../../arm-none-eabi/lib/thumb/v7e-m+fp/hard\libc_nano.a(lib_a-nano-vfprintf.o)
 .ARM.attributes
                0x000013ee       0x34 d:/toolchain/gcc-arm-none-eabi/bin/../lib/gcc/arm-none-eabi/9.2.1/../../../../arm-none-eabi/lib/thumb/v7e-m+fp/hard\libc_nano.a(lib_a-rget.o)
 .ARM.attributes
                0x00001422       0x34 d:/toolchain/gcc-arm-none-eabi/bin/../lib/gcc/arm-none-eabi/9.2.1/../../../../arm-none-eabi/lib/thumb/v7e-m+fp/hard\libc_nano.a(lib_a-s_nan.o)
 .ARM.attributes
                0x00001456       0x34 d:/toolchain/gcc-arm-none-eabi/bin/../lib/gcc/arm-none-eabi/9.2.1/../../../../arm-none-eabi/lib/thumb/v7e-m+fp/hard\libc_nano.a(lib_a-stdio.o)
 .ARM.attributes
                0x0000148a       0x34 d:/toolchain/gcc-arm-none-eabi/bin/../lib/gcc/arm-none-eabi/9.2.1/../../../../arm-none-eabi/lib/thumb/v7e-m+fp/hard\libc_nano.a(lib_a-strncmp.o)
 .ARM.attributes
                0x000014be       0x34 d:/toolchain/gcc-arm-none-eabi/bin/../lib/gcc/arm-none-eabi/9.2.1/../../../../arm-none-eabi/lib/thumb/v7e-m+fp/hard\libc_nano.a(lib_a-wbuf.o)
 .ARM.attributes
                0x000014f2       0x34 d:/toolchain/gcc-arm-none-eabi/bin/../lib/gcc/arm-none-eabi/9.2.1/../../../../arm-none-eabi/lib/thumb/v7e-m+fp/hard\libc_nano.a(lib_a-wctomb_r.o)
 .ARM.attributes
                0x00001526       0x34 d:/toolchain/gcc-arm-none-eabi/bin/../lib/gcc/arm-none-eabi/9.2.1/../../../../arm-none-eabi/lib/thumb/v7e-m+fp/hard\libc_nano.a(lib_a-writer.o)
 .ARM.attributes
                0x0000155a       0x34 d:/toolchain/gcc-arm-none-eabi/bin/../lib/gcc/arm-none-eabi/9.2.1/../../../../arm-none-eabi/lib/thumb/v7e-m+fp/hard\libc_nano.a(lib_a-wsetup.o)
 .ARM.attributes
                0x0000158e       0x34 d:/toolchain/gcc-arm-none-eabi/bin/../lib/gcc/arm-none-eabi/9.2.1/../../../../arm-none-eabi/lib/thumb/v7e-m+fp/hard\libc_nano.a(lib_a-closer.o)
 .ARM.attributes
                0x000015c2       0x34 d:/toolchain/gcc-arm-none-eabi/bin/../lib/gcc/arm-none-eabi/9.2.1/../../../../arm-none-eabi/lib/thumb/v7e-m+fp/hard\libc_nano.a(lib_a-fstatr.o)
 .ARM.attributes
                0x000015f6       0x34 d:/toolchain/gcc-arm-none-eabi/bin/../lib/gcc/arm-none-eabi/9.2.1/../../../../arm-none-eabi/lib/thumb/v7e-m+fp/hard\libc_nano.a(lib_a-fvwrite.o)
 .ARM.attributes
                0x0000162a       0x34 d:/toolchain/gcc-arm-none-eabi/bin/../lib/gcc/arm-none-eabi/9.2.1/../../../../arm-none-eabi/lib/thumb/v7e-m+fp/hard\libc_nano.a(lib_a-isattyr.o)
 .ARM.attributes
                0x0000165e       0x34 d:/toolchain/gcc-arm-none-eabi/bin/../lib/gcc/arm-none-eabi/9.2.1/../../../../arm-none-eabi/lib/thumb/v7e-m+fp/hard\libc_nano.a(lib_a-lseekr.o)
 .ARM.attributes
                0x00001692       0x34 d:/toolchain/gcc-arm-none-eabi/bin/../lib/gcc/arm-none-eabi/9.2.1/../../../../arm-none-eabi/lib/thumb/v7e-m+fp/hard\libc_nano.a(lib_a-memmove.o)
 .ARM.attributes
                0x000016c6       0x34 d:/toolchain/gcc-arm-none-eabi/bin/../lib/gcc/arm-none-eabi/9.2.1/../../../../arm-none-eabi/lib/thumb/v7e-m+fp/hard\libc_nano.a(lib_a-nano-reallocr.o)
 .ARM.attributes
                0x000016fa       0x34 d:/toolchain/gcc-arm-none-eabi/bin/../lib/gcc/arm-none-eabi/9.2.1/../../../../arm-none-eabi/lib/thumb/v7e-m+fp/hard\libc_nano.a(lib_a-readr.o)
 .ARM.attributes
                0x0000172e       0x34 d:/toolchain/gcc-arm-none-eabi/bin/../lib/gcc/arm-none-eabi/9.2.1/../../../../arm-none-eabi/lib/thumb/v7e-m+fp/hard\libc_nano.a(lib_a-refill.o)
 .ARM.attributes
                0x00001762       0x34 d:/toolchain/gcc-arm-none-eabi/bin/../lib/gcc/arm-none-eabi/9.2.1/../../../../arm-none-eabi/lib/thumb/v7e-m+fp/hard\libc_nano.a(lib_a-nano-msizer.o)
 .ARM.attributes
                0x00001796       0x1e d:/toolchain/gcc-arm-none-eabi/bin/../lib/gcc/arm-none-eabi/9.2.1/thumb/v7e-m+fp/hard\libgcc.a(_arm_muldf3.o)
 .ARM.attributes
                0x000017b4       0x1e d:/toolchain/gcc-arm-none-eabi/bin/../lib/gcc/arm-none-eabi/9.2.1/thumb/v7e-m+fp/hard\libgcc.a(_arm_addsubdf3.o)
 .ARM.attributes
                0x000017d2       0x1e d:/toolchain/gcc-arm-none-eabi/bin/../lib/gcc/arm-none-eabi/9.2.1/thumb/v7e-m+fp/hard\libgcc.a(_arm_muldivdf3.o)
 .ARM.attributes
                0x000017f0       0x1e d:/toolchain/gcc-arm-none-eabi/bin/../lib/gcc/arm-none-eabi/9.2.1/thumb/v7e-m+fp/hard\libgcc.a(_arm_cmpdf2.o)
 .ARM.attributes
                0x0000180e       0x1e d:/toolchain/gcc-arm-none-eabi/bin/../lib/gcc/arm-none-eabi/9.2.1/thumb/v7e-m+fp/hard\libgcc.a(_arm_unorddf2.o)
 .ARM.attributes
                0x0000182c       0x1e d:/toolchain/gcc-arm-none-eabi/bin/../lib/gcc/arm-none-eabi/9.2.1/thumb/v7e-m+fp/hard\libgcc.a(_arm_fixdfsi.o)
 .ARM.attributes
                0x0000184a       0x1e d:/toolchain/gcc-arm-none-eabi/bin/../lib/gcc/arm-none-eabi/9.2.1/thumb/v7e-m+fp/hard\libgcc.a(_arm_fixunsdfsi.o)
 .ARM.attributes
                0x00001868       0x1e d:/toolchain/gcc-arm-none-eabi/bin/../lib/gcc/arm-none-eabi/9.2.1/thumb/v7e-m+fp/hard\libgcc.a(_arm_truncdfsf2.o)
 .ARM.attributes
                0x00001886       0x34 d:/toolchain/gcc-arm-none-eabi/bin/../lib/gcc/arm-none-eabi/9.2.1/thumb/v7e-m+fp/hard\libgcc.a(_fixdfdi.o)
 .ARM.attributes
                0x000018ba       0x34 d:/toolchain/gcc-arm-none-eabi/bin/../lib/gcc/arm-none-eabi/9.2.1/thumb/v7e-m+fp/hard\libgcc.a(_fixunsdfdi.o)
 .ARM.attributes
                0x000018ee       0x34 d:/toolchain/gcc-arm-none-eabi/bin/../lib/gcc/arm-none-eabi/9.2.1/../../../../arm-none-eabi/lib/thumb/v7e-m+fp/hard\libnosys.a(close.o)
 .ARM.attributes
                0x00001922       0x34 d:/toolchain/gcc-arm-none-eabi/bin/../lib/gcc/arm-none-eabi/9.2.1/../../../../arm-none-eabi/lib/thumb/v7e-m+fp/hard\libnosys.a(fstat.o)
 .ARM.attributes
                0x00001956       0x34 d:/toolchain/gcc-arm-none-eabi/bin/../lib/gcc/arm-none-eabi/9.2.1/../../../../arm-none-eabi/lib/thumb/v7e-m+fp/hard\libnosys.a(isatty.o)
 .ARM.attributes
                0x0000198a       0x34 d:/toolchain/gcc-arm-none-eabi/bin/../lib/gcc/arm-none-eabi/9.2.1/../../../../arm-none-eabi/lib/thumb/v7e-m+fp/hard\libnosys.a(lseek.o)
 .ARM.attributes
                0x000019be       0x34 d:/toolchain/gcc-arm-none-eabi/bin/../lib/gcc/arm-none-eabi/9.2.1/../../../../arm-none-eabi/lib/thumb/v7e-m+fp/hard\libnosys.a(_exit.o)
 .ARM.attributes
                0x000019f2       0x32 d:/toolchain/gcc-arm-none-eabi/bin/../lib/gcc/arm-none-eabi/9.2.1/thumb/v7e-m+fp/hard/crtend.o
 .ARM.attributes
                0x00001a24       0x1e d:/toolchain/gcc-arm-none-eabi/bin/../lib/gcc/arm-none-eabi/9.2.1/thumb/v7e-m+fp/hard/crtn.o
OUTPUT(bin/lab3_rtos.elf elf32-littlearm)

.comment        0x00000000       0x79
 .comment       0x00000000       0x79 build/cmd_line_buffer.o
                                 0x7a (size before relaxing)
 .comment       0x00000079       0x7a build/cmd_parser.o
 .comment       0x00000079       0x7a build/light.o
 .comment       0x00000079       0x7a build/potentiometer.o
 .comment       0x00000079       0x7a build/led_rgb.o
 .comment       0x00000079       0x7a build/button.o
 .comment       0x00000079       0x7a build/dimmer_task.o
 .comment       0x00000079       0x7a build/heartbeat_task.o
 .comment       0x00000079       0x7a build/stm32f4xx_hal_msp.o
 .comment       0x00000079       0x7a build/main.o
 .comment       0x00000079       0x7a build/stm32f4xx_it.o
 .comment       0x00000079       0x7a build/system_stm32f4xx.o
 .comment       0x00000079       0x7a build/uart.o
 .comment       0x00000079       0x7a build/cmd_task.o
 .comment       0x00000079       0x7a build/stm32f4_HAL/stm32f4xx_hal.o
 .comment       0x00000079       0x7a build/stm32f4_HAL/stm32f4xx_hal_dma.o
 .comment       0x00000079       0x7a build/stm32f4_HAL/stm32f4xx_hal_adc.o
 .comment       0x00000079       0x7a build/stm32f4_HAL/stm32f4xx_hal_adc_ex.o
 .comment       0x00000079       0x7a build/stm32f4_HAL/stm32f4xx_hal_gpio.o
 .comment       0x00000079       0x7a build/stm32f4_HAL/stm32f4xx_ll_gpio.o
 .comment       0x00000079       0x7a build/stm32f4_HAL/stm32f4xx_ll_usart.o
 .comment       0x00000079       0x7a build/stm32f4_HAL/stm32f4xx_ll_dma.o
 .comment       0x00000079       0x7a build/stm32f4_HAL/stm32f4xx_ll_rcc.o
 .comment       0x00000079       0x7a build/stm32f4_HAL/stm32f4xx_hal_i2c.o
 .comment       0x00000079       0x7a build/stm32f4_HAL/stm32f4xx_hal_i2c_ex.o
 .comment       0x00000079       0x7a build/stm32f4_HAL/stm32f4xx_hal_tim.o
 .comment       0x00000079       0x7a build/stm32f4_HAL/stm32f4xx_hal_tim_ex.o
 .comment       0x00000079       0x7a build/stm32f4_HAL/stm32f4xx_hal_rtc.o
 .comment       0x00000079       0x7a build/stm32f4_HAL/stm32f4xx_hal_rcc.o
 .comment       0x00000079       0x7a build/stm32f4_HAL/stm32f4xx_hal_rcc_ex.o
 .comment       0x00000079       0x7a build/stm32f4_HAL/stm32f4xx_hal_pwr.o
 .comment       0x00000079       0x7a build/stm32f4_HAL/stm32f4xx_hal_pwr_ex.o
 .comment       0x00000079       0x7a build/stm32f4_HAL/stm32f4xx_hal_cortex.o
 .comment       0x00000079       0x7a build/stm32f4_HAL/stm32f4xx_hal_spi.o
 .comment       0x00000079       0x7a build/FreeRTOS/croutine.o
 .comment       0x00000079       0x7a build/FreeRTOS/event_groups.o
 .comment       0x00000079       0x7a build/FreeRTOS/list.o
 .comment       0x00000079       0x7a build/FreeRTOS/queue.o
 .comment       0x00000079       0x7a build/FreeRTOS/tasks.o
 .comment       0x00000079       0x7a build/FreeRTOS/timers.o
 .comment       0x00000079       0x7a build/FreeRTOS/stream_buffer.o
 .comment       0x00000079       0x7a build/FreeRTOS/cmsis_os2.o
 .comment       0x00000079       0x7a build/FreeRTOS/clib_arm.o
 .comment       0x00000079       0x7a build/FreeRTOS/os_systick.o
 .comment       0x00000079       0x7a build/FreeRTOS/heap_useNewlib.o
 .comment       0x00000079       0x7a build/FreeRTOS/port.o

.debug_frame    0x00000000     0x1954
 .debug_frame   0x00000000       0x44 d:/toolchain/gcc-arm-none-eabi/bin/../lib/gcc/arm-none-eabi/9.2.1/thumb/v7e-m+fp/hard\libgcc.a(_aeabi_ldivmod.o)
 .debug_frame   0x00000044       0x2c d:/toolchain/gcc-arm-none-eabi/bin/../lib/gcc/arm-none-eabi/9.2.1/thumb/v7e-m+fp/hard\libgcc.a(_aeabi_uldivmod.o)
 .debug_frame   0x00000070       0x34 d:/toolchain/gcc-arm-none-eabi/bin/../lib/gcc/arm-none-eabi/9.2.1/thumb/v7e-m+fp/hard\libgcc.a(_udivmoddi4.o)
 .debug_frame   0x000000a4       0x30 d:/toolchain/gcc-arm-none-eabi/bin/../lib/gcc/arm-none-eabi/9.2.1/../../../../arm-none-eabi/lib/thumb/v7e-m+fp/hard\libc_nano.a(lib_a-atoi.o)
 .debug_frame   0x000000d4       0x28 d:/toolchain/gcc-arm-none-eabi/bin/../lib/gcc/arm-none-eabi/9.2.1/../../../../arm-none-eabi/lib/thumb/v7e-m+fp/hard\libc_nano.a(lib_a-exit.o)
 .debug_frame   0x000000fc       0x48 d:/toolchain/gcc-arm-none-eabi/bin/../lib/gcc/arm-none-eabi/9.2.1/../../../../arm-none-eabi/lib/thumb/v7e-m+fp/hard\libc_nano.a(lib_a-getchar.o)
 .debug_frame   0x00000144       0x2c d:/toolchain/gcc-arm-none-eabi/bin/../lib/gcc/arm-none-eabi/9.2.1/../../../../arm-none-eabi/lib/thumb/v7e-m+fp/hard\libc_nano.a(lib_a-init.o)
 .debug_frame   0x00000170       0x30 d:/toolchain/gcc-arm-none-eabi/bin/../lib/gcc/arm-none-eabi/9.2.1/../../../../arm-none-eabi/lib/thumb/v7e-m+fp/hard\libc_nano.a(lib_a-malloc.o)
 .debug_frame   0x000001a0       0x28 d:/toolchain/gcc-arm-none-eabi/bin/../lib/gcc/arm-none-eabi/9.2.1/../../../../arm-none-eabi/lib/thumb/v7e-m+fp/hard\libc_nano.a(lib_a-memcpy-stub.o)
 .debug_frame   0x000001c8       0x20 d:/toolchain/gcc-arm-none-eabi/bin/../lib/gcc/arm-none-eabi/9.2.1/../../../../arm-none-eabi/lib/thumb/v7e-m+fp/hard\libc_nano.a(lib_a-memset.o)
 .debug_frame   0x000001e8       0x78 d:/toolchain/gcc-arm-none-eabi/bin/../lib/gcc/arm-none-eabi/9.2.1/../../../../arm-none-eabi/lib/thumb/v7e-m+fp/hard\libc_nano.a(lib_a-mstats.o)
 .debug_frame   0x00000260       0x38 d:/toolchain/gcc-arm-none-eabi/bin/../lib/gcc/arm-none-eabi/9.2.1/../../../../arm-none-eabi/lib/thumb/v7e-m+fp/hard\libc_nano.a(lib_a-nano-freer.o)
 .debug_frame   0x00000298       0x2c d:/toolchain/gcc-arm-none-eabi/bin/../lib/gcc/arm-none-eabi/9.2.1/../../../../arm-none-eabi/lib/thumb/v7e-m+fp/hard\libc_nano.a(lib_a-nano-mallinfor.o)
 .debug_frame   0x000002c4       0x30 d:/toolchain/gcc-arm-none-eabi/bin/../lib/gcc/arm-none-eabi/9.2.1/../../../../arm-none-eabi/lib/thumb/v7e-m+fp/hard\libc_nano.a(lib_a-nano-mallocr.o)
 .debug_frame   0x000002f4       0x20 d:/toolchain/gcc-arm-none-eabi/bin/../lib/gcc/arm-none-eabi/9.2.1/../../../../arm-none-eabi/lib/thumb/v7e-m+fp/hard\libc_nano.a(lib_a-nano-malloptr.o)
 .debug_frame   0x00000314       0x38 d:/toolchain/gcc-arm-none-eabi/bin/../lib/gcc/arm-none-eabi/9.2.1/../../../../arm-none-eabi/lib/thumb/v7e-m+fp/hard\libc_nano.a(lib_a-nano-mallstatsr.o)
 .debug_frame   0x0000034c       0xa0 d:/toolchain/gcc-arm-none-eabi/bin/../lib/gcc/arm-none-eabi/9.2.1/../../../../arm-none-eabi/lib/thumb/v7e-m+fp/hard\libc_nano.a(lib_a-nano-vfprintf_float.o)
 .debug_frame   0x000003ec       0x60 d:/toolchain/gcc-arm-none-eabi/bin/../lib/gcc/arm-none-eabi/9.2.1/../../../../arm-none-eabi/lib/thumb/v7e-m+fp/hard\libc_nano.a(lib_a-nano-vfprintf_i.o)
 .debug_frame   0x0000044c       0x40 d:/toolchain/gcc-arm-none-eabi/bin/../lib/gcc/arm-none-eabi/9.2.1/../../../../arm-none-eabi/lib/thumb/v7e-m+fp/hard\libc_nano.a(lib_a-nano-vfscanf_float.o)
 .debug_frame   0x0000048c       0x74 d:/toolchain/gcc-arm-none-eabi/bin/../lib/gcc/arm-none-eabi/9.2.1/../../../../arm-none-eabi/lib/thumb/v7e-m+fp/hard\libc_nano.a(lib_a-printf.o)
 .debug_frame   0x00000500       0x5c d:/toolchain/gcc-arm-none-eabi/bin/../lib/gcc/arm-none-eabi/9.2.1/../../../../arm-none-eabi/lib/thumb/v7e-m+fp/hard\libc_nano.a(lib_a-reent.o)
 .debug_frame   0x0000055c       0x2c d:/toolchain/gcc-arm-none-eabi/bin/../lib/gcc/arm-none-eabi/9.2.1/../../../../arm-none-eabi/lib/thumb/v7e-m+fp/hard\libc_nano.a(lib_a-sbrkr.o)
 .debug_frame   0x00000588       0x38 d:/toolchain/gcc-arm-none-eabi/bin/../lib/gcc/arm-none-eabi/9.2.1/../../../../arm-none-eabi/lib/thumb/v7e-m+fp/hard\libc_nano.a(lib_a-setvbuf.o)
 .debug_frame   0x000005c0       0x20 d:/toolchain/gcc-arm-none-eabi/bin/../lib/gcc/arm-none-eabi/9.2.1/../../../../arm-none-eabi/lib/thumb/v7e-m+fp/hard\libc_nano.a(lib_a-sf_nan.o)
 .debug_frame   0x000005e0       0x6c d:/toolchain/gcc-arm-none-eabi/bin/../lib/gcc/arm-none-eabi/9.2.1/../../../../arm-none-eabi/lib/thumb/v7e-m+fp/hard\libc_nano.a(lib_a-sprintf.o)
 .debug_frame   0x0000064c       0x20 d:/toolchain/gcc-arm-none-eabi/bin/../lib/gcc/arm-none-eabi/9.2.1/../../../../arm-none-eabi/lib/thumb/v7e-m+fp/hard\libc_nano.a(lib_a-strcmp.o)
 .debug_frame   0x0000066c      0x11c d:/toolchain/gcc-arm-none-eabi/bin/../lib/gcc/arm-none-eabi/9.2.1/../../../../arm-none-eabi/lib/thumb/v7e-m+fp/hard\libc_nano.a(lib_a-strtod.o)
 .debug_frame   0x00000788       0x64 d:/toolchain/gcc-arm-none-eabi/bin/../lib/gcc/arm-none-eabi/9.2.1/../../../../arm-none-eabi/lib/thumb/v7e-m+fp/hard\libc_nano.a(lib_a-strtol.o)
 .debug_frame   0x000007ec       0x54 d:/toolchain/gcc-arm-none-eabi/bin/../lib/gcc/arm-none-eabi/9.2.1/../../../../arm-none-eabi/lib/thumb/v7e-m+fp/hard\libc_nano.a(lib_a-vprintf.o)
 .debug_frame   0x00000840       0x7c d:/toolchain/gcc-arm-none-eabi/bin/../lib/gcc/arm-none-eabi/9.2.1/../../../../arm-none-eabi/lib/thumb/v7e-m+fp/hard\libc_nano.a(lib_a-dtoa.o)
 .debug_frame   0x000008bc       0x5c d:/toolchain/gcc-arm-none-eabi/bin/../lib/gcc/arm-none-eabi/9.2.1/../../../../arm-none-eabi/lib/thumb/v7e-m+fp/hard\libc_nano.a(lib_a-fflush.o)
 .debug_frame   0x00000918      0x14c d:/toolchain/gcc-arm-none-eabi/bin/../lib/gcc/arm-none-eabi/9.2.1/../../../../arm-none-eabi/lib/thumb/v7e-m+fp/hard\libc_nano.a(lib_a-findfp.o)
 .debug_frame   0x00000a64       0x64 d:/toolchain/gcc-arm-none-eabi/bin/../lib/gcc/arm-none-eabi/9.2.1/../../../../arm-none-eabi/lib/thumb/v7e-m+fp/hard\libc_nano.a(lib_a-fprintf.o)
 .debug_frame   0x00000ac8       0x54 d:/toolchain/gcc-arm-none-eabi/bin/../lib/gcc/arm-none-eabi/9.2.1/../../../../arm-none-eabi/lib/thumb/v7e-m+fp/hard\libc_nano.a(lib_a-fwalk.o)
 .debug_frame   0x00000b1c       0x84 d:/toolchain/gcc-arm-none-eabi/bin/../lib/gcc/arm-none-eabi/9.2.1/../../../../arm-none-eabi/lib/thumb/v7e-m+fp/hard\libc_nano.a(lib_a-gdtoa-gethex.o)
 .debug_frame   0x00000ba0       0x74 d:/toolchain/gcc-arm-none-eabi/bin/../lib/gcc/arm-none-eabi/9.2.1/../../../../arm-none-eabi/lib/thumb/v7e-m+fp/hard\libc_nano.a(lib_a-gdtoa-hexnan.o)
 .debug_frame   0x00000c14       0x48 d:/toolchain/gcc-arm-none-eabi/bin/../lib/gcc/arm-none-eabi/9.2.1/../../../../arm-none-eabi/lib/thumb/v7e-m+fp/hard\libc_nano.a(lib_a-getc.o)
 .debug_frame   0x00000c5c       0x20 d:/toolchain/gcc-arm-none-eabi/bin/../lib/gcc/arm-none-eabi/9.2.1/../../../../arm-none-eabi/lib/thumb/v7e-m+fp/hard\libc_nano.a(lib_a-lnumeric.o)
 .debug_frame   0x00000c7c       0x48 d:/toolchain/gcc-arm-none-eabi/bin/../lib/gcc/arm-none-eabi/9.2.1/../../../../arm-none-eabi/lib/thumb/v7e-m+fp/hard\libc_nano.a(lib_a-locale.o)
 .debug_frame   0x00000cc4       0x40 d:/toolchain/gcc-arm-none-eabi/bin/../lib/gcc/arm-none-eabi/9.2.1/../../../../arm-none-eabi/lib/thumb/v7e-m+fp/hard\libc_nano.a(lib_a-localeconv.o)
 .debug_frame   0x00000d04       0xb0 d:/toolchain/gcc-arm-none-eabi/bin/../lib/gcc/arm-none-eabi/9.2.1/../../../../arm-none-eabi/lib/thumb/v7e-m+fp/hard\libc_nano.a(lib_a-lock.o)
 .debug_frame   0x00000db4       0x58 d:/toolchain/gcc-arm-none-eabi/bin/../lib/gcc/arm-none-eabi/9.2.1/../../../../arm-none-eabi/lib/thumb/v7e-m+fp/hard\libc_nano.a(lib_a-makebuf.o)
 .debug_frame   0x00000e0c       0x48 d:/toolchain/gcc-arm-none-eabi/bin/../lib/gcc/arm-none-eabi/9.2.1/../../../../arm-none-eabi/lib/thumb/v7e-m+fp/hard\libc_nano.a(lib_a-mbtowc_r.o)
 .debug_frame   0x00000e54      0x25c d:/toolchain/gcc-arm-none-eabi/bin/../lib/gcc/arm-none-eabi/9.2.1/../../../../arm-none-eabi/lib/thumb/v7e-m+fp/hard\libc_nano.a(lib_a-mprec.o)
 .debug_frame   0x000010b0       0x2c d:/toolchain/gcc-arm-none-eabi/bin/../lib/gcc/arm-none-eabi/9.2.1/../../../../arm-none-eabi/lib/thumb/v7e-m+fp/hard\libc_nano.a(lib_a-nano-callocr.o)
 .debug_frame   0x000010dc       0x90 d:/toolchain/gcc-arm-none-eabi/bin/../lib/gcc/arm-none-eabi/9.2.1/../../../../arm-none-eabi/lib/thumb/v7e-m+fp/hard\libc_nano.a(lib_a-nano-svfprintf.o)
 .debug_frame   0x0000116c       0xac d:/toolchain/gcc-arm-none-eabi/bin/../lib/gcc/arm-none-eabi/9.2.1/../../../../arm-none-eabi/lib/thumb/v7e-m+fp/hard\libc_nano.a(lib_a-nano-vfprintf.o)
 .debug_frame   0x00001218       0x3c d:/toolchain/gcc-arm-none-eabi/bin/../lib/gcc/arm-none-eabi/9.2.1/../../../../arm-none-eabi/lib/thumb/v7e-m+fp/hard\libc_nano.a(lib_a-rget.o)
 .debug_frame   0x00001254       0x20 d:/toolchain/gcc-arm-none-eabi/bin/../lib/gcc/arm-none-eabi/9.2.1/../../../../arm-none-eabi/lib/thumb/v7e-m+fp/hard\libc_nano.a(lib_a-s_nan.o)
 .debug_frame   0x00001274       0x88 d:/toolchain/gcc-arm-none-eabi/bin/../lib/gcc/arm-none-eabi/9.2.1/../../../../arm-none-eabi/lib/thumb/v7e-m+fp/hard\libc_nano.a(lib_a-stdio.o)
 .debug_frame   0x000012fc       0x28 d:/toolchain/gcc-arm-none-eabi/bin/../lib/gcc/arm-none-eabi/9.2.1/../../../../arm-none-eabi/lib/thumb/v7e-m+fp/hard\libc_nano.a(lib_a-strncmp.o)
 .debug_frame   0x00001324       0x40 d:/toolchain/gcc-arm-none-eabi/bin/../lib/gcc/arm-none-eabi/9.2.1/../../../../arm-none-eabi/lib/thumb/v7e-m+fp/hard\libc_nano.a(lib_a-wbuf.o)
 .debug_frame   0x00001364       0x3c d:/toolchain/gcc-arm-none-eabi/bin/../lib/gcc/arm-none-eabi/9.2.1/../../../../arm-none-eabi/lib/thumb/v7e-m+fp/hard\libc_nano.a(lib_a-wctomb_r.o)
 .debug_frame   0x000013a0       0x2c d:/toolchain/gcc-arm-none-eabi/bin/../lib/gcc/arm-none-eabi/9.2.1/../../../../arm-none-eabi/lib/thumb/v7e-m+fp/hard\libc_nano.a(lib_a-writer.o)
 .debug_frame   0x000013cc       0x2c d:/toolchain/gcc-arm-none-eabi/bin/../lib/gcc/arm-none-eabi/9.2.1/../../../../arm-none-eabi/lib/thumb/v7e-m+fp/hard\libc_nano.a(lib_a-wsetup.o)
 .debug_frame   0x000013f8       0x2c d:/toolchain/gcc-arm-none-eabi/bin/../lib/gcc/arm-none-eabi/9.2.1/../../../../arm-none-eabi/lib/thumb/v7e-m+fp/hard\libc_nano.a(lib_a-closer.o)
 .debug_frame   0x00001424       0x2c d:/toolchain/gcc-arm-none-eabi/bin/../lib/gcc/arm-none-eabi/9.2.1/../../../../arm-none-eabi/lib/thumb/v7e-m+fp/hard\libc_nano.a(lib_a-fstatr.o)
 .debug_frame   0x00001450       0x3c d:/toolchain/gcc-arm-none-eabi/bin/../lib/gcc/arm-none-eabi/9.2.1/../../../../arm-none-eabi/lib/thumb/v7e-m+fp/hard\libc_nano.a(lib_a-fvwrite.o)
 .debug_frame   0x0000148c       0x2c d:/toolchain/gcc-arm-none-eabi/bin/../lib/gcc/arm-none-eabi/9.2.1/../../../../arm-none-eabi/lib/thumb/v7e-m+fp/hard\libc_nano.a(lib_a-isattyr.o)
 .debug_frame   0x000014b8       0x2c d:/toolchain/gcc-arm-none-eabi/bin/../lib/gcc/arm-none-eabi/9.2.1/../../../../arm-none-eabi/lib/thumb/v7e-m+fp/hard\libc_nano.a(lib_a-lseekr.o)
 .debug_frame   0x000014e4       0x28 d:/toolchain/gcc-arm-none-eabi/bin/../lib/gcc/arm-none-eabi/9.2.1/../../../../arm-none-eabi/lib/thumb/v7e-m+fp/hard\libc_nano.a(lib_a-memmove.o)
 .debug_frame   0x0000150c       0x3c d:/toolchain/gcc-arm-none-eabi/bin/../lib/gcc/arm-none-eabi/9.2.1/../../../../arm-none-eabi/lib/thumb/v7e-m+fp/hard\libc_nano.a(lib_a-nano-reallocr.o)
 .debug_frame   0x00001548       0x2c d:/toolchain/gcc-arm-none-eabi/bin/../lib/gcc/arm-none-eabi/9.2.1/../../../../arm-none-eabi/lib/thumb/v7e-m+fp/hard\libc_nano.a(lib_a-readr.o)
 .debug_frame   0x00001574       0x40 d:/toolchain/gcc-arm-none-eabi/bin/../lib/gcc/arm-none-eabi/9.2.1/../../../../arm-none-eabi/lib/thumb/v7e-m+fp/hard\libc_nano.a(lib_a-refill.o)
 .debug_frame   0x000015b4       0x20 d:/toolchain/gcc-arm-none-eabi/bin/../lib/gcc/arm-none-eabi/9.2.1/../../../../arm-none-eabi/lib/thumb/v7e-m+fp/hard\libc_nano.a(lib_a-nano-msizer.o)
 .debug_frame   0x000015d4       0x30 d:/toolchain/gcc-arm-none-eabi/bin/../lib/gcc/arm-none-eabi/9.2.1/thumb/v7e-m+fp/hard\libgcc.a(_arm_muldf3.o)
 .debug_frame   0x00001604       0xac d:/toolchain/gcc-arm-none-eabi/bin/../lib/gcc/arm-none-eabi/9.2.1/thumb/v7e-m+fp/hard\libgcc.a(_arm_addsubdf3.o)
 .debug_frame   0x000016b0       0x50 d:/toolchain/gcc-arm-none-eabi/bin/../lib/gcc/arm-none-eabi/9.2.1/thumb/v7e-m+fp/hard\libgcc.a(_arm_muldivdf3.o)
 .debug_frame   0x00001700       0xc4 d:/toolchain/gcc-arm-none-eabi/bin/../lib/gcc/arm-none-eabi/9.2.1/thumb/v7e-m+fp/hard\libgcc.a(_arm_cmpdf2.o)
 .debug_frame   0x000017c4       0x20 d:/toolchain/gcc-arm-none-eabi/bin/../lib/gcc/arm-none-eabi/9.2.1/thumb/v7e-m+fp/hard\libgcc.a(_arm_unorddf2.o)
 .debug_frame   0x000017e4       0x24 d:/toolchain/gcc-arm-none-eabi/bin/../lib/gcc/arm-none-eabi/9.2.1/thumb/v7e-m+fp/hard\libgcc.a(_arm_fixdfsi.o)
 .debug_frame   0x00001808       0x24 d:/toolchain/gcc-arm-none-eabi/bin/../lib/gcc/arm-none-eabi/9.2.1/thumb/v7e-m+fp/hard\libgcc.a(_arm_fixunsdfsi.o)
 .debug_frame   0x0000182c       0x24 d:/toolchain/gcc-arm-none-eabi/bin/../lib/gcc/arm-none-eabi/9.2.1/thumb/v7e-m+fp/hard\libgcc.a(_arm_truncdfsf2.o)
 .debug_frame   0x00001850       0x38 d:/toolchain/gcc-arm-none-eabi/bin/../lib/gcc/arm-none-eabi/9.2.1/thumb/v7e-m+fp/hard\libgcc.a(_fixdfdi.o)
 .debug_frame   0x00001888       0x2c d:/toolchain/gcc-arm-none-eabi/bin/../lib/gcc/arm-none-eabi/9.2.1/thumb/v7e-m+fp/hard\libgcc.a(_fixunsdfdi.o)
 .debug_frame   0x000018b4       0x20 d:/toolchain/gcc-arm-none-eabi/bin/../lib/gcc/arm-none-eabi/9.2.1/../../../../arm-none-eabi/lib/thumb/v7e-m+fp/hard\libnosys.a(close.o)
 .debug_frame   0x000018d4       0x20 d:/toolchain/gcc-arm-none-eabi/bin/../lib/gcc/arm-none-eabi/9.2.1/../../../../arm-none-eabi/lib/thumb/v7e-m+fp/hard\libnosys.a(fstat.o)
 .debug_frame   0x000018f4       0x20 d:/toolchain/gcc-arm-none-eabi/bin/../lib/gcc/arm-none-eabi/9.2.1/../../../../arm-none-eabi/lib/thumb/v7e-m+fp/hard\libnosys.a(isatty.o)
 .debug_frame   0x00001914       0x20 d:/toolchain/gcc-arm-none-eabi/bin/../lib/gcc/arm-none-eabi/9.2.1/../../../../arm-none-eabi/lib/thumb/v7e-m+fp/hard\libnosys.a(lseek.o)
 .debug_frame   0x00001934       0x20 d:/toolchain/gcc-arm-none-eabi/bin/../lib/gcc/arm-none-eabi/9.2.1/../../../../arm-none-eabi/lib/thumb/v7e-m+fp/hard\libnosys.a(_exit.o)

.stab           0x00000000       0x6c
 .stab          0x00000000       0x24 d:/toolchain/gcc-arm-none-eabi/bin/../lib/gcc/arm-none-eabi/9.2.1/../../../../arm-none-eabi/lib/thumb/v7e-m+fp/hard\libnosys.a(close.o)
 .stab          0x00000024       0x18 d:/toolchain/gcc-arm-none-eabi/bin/../lib/gcc/arm-none-eabi/9.2.1/../../../../arm-none-eabi/lib/thumb/v7e-m+fp/hard\libnosys.a(fstat.o)
                                 0x24 (size before relaxing)
 .stab          0x0000003c       0x18 d:/toolchain/gcc-arm-none-eabi/bin/../lib/gcc/arm-none-eabi/9.2.1/../../../../arm-none-eabi/lib/thumb/v7e-m+fp/hard\libnosys.a(isatty.o)
                                 0x24 (size before relaxing)
 .stab          0x00000054       0x18 d:/toolchain/gcc-arm-none-eabi/bin/../lib/gcc/arm-none-eabi/9.2.1/../../../../arm-none-eabi/lib/thumb/v7e-m+fp/hard\libnosys.a(lseek.o)
                                 0x24 (size before relaxing)

.stabstr        0x00000000       0xe3
 .stabstr       0x00000000       0xe3 d:/toolchain/gcc-arm-none-eabi/bin/../lib/gcc/arm-none-eabi/9.2.1/../../../../arm-none-eabi/lib/thumb/v7e-m+fp/hard\libnosys.a(close.o)

Cross Reference Table

Symbol                                            File
ADC_IRQHandler                                    build/startup_stm32f446xx.o
AHBPrescTable                                     build/system_stm32f4xx.o
                                                  build/stm32f4_HAL/stm32f4xx_hal_rcc.o
                                                  build/stm32f4_HAL/stm32f4xx_ll_rcc.o
APBPrescTable                                     build/system_stm32f4xx.o
                                                  build/stm32f4_HAL/stm32f4xx_hal_rcc.o
                                                  build/stm32f4_HAL/stm32f4xx_ll_rcc.o
BusFault_Handler                                  build/stm32f4xx_it.o
CAN1_RX0_IRQHandler                               build/startup_stm32f446xx.o
CAN1_RX1_IRQHandler                               build/startup_stm32f446xx.o
CAN1_SCE_IRQHandler                               build/startup_stm32f446xx.o
CAN1_TX_IRQHandler                                build/startup_stm32f446xx.o
CAN2_RX0_IRQHandler                               build/startup_stm32f446xx.o
CAN2_RX1_IRQHandler                               build/startup_stm32f446xx.o
CAN2_SCE_IRQHandler                               build/startup_stm32f446xx.o
CAN2_TX_IRQHandler                                build/startup_stm32f446xx.o
CEC_IRQHandler                                    build/startup_stm32f446xx.o
DCMI_IRQHandler                                   build/startup_stm32f446xx.o
DMA1_Stream0_IRQHandler                           build/startup_stm32f446xx.o
DMA1_Stream1_IRQHandler                           build/startup_stm32f446xx.o
DMA1_Stream2_IRQHandler                           build/startup_stm32f446xx.o
DMA1_Stream3_IRQHandler                           build/startup_stm32f446xx.o
DMA1_Stream4_IRQHandler                           build/startup_stm32f446xx.o
DMA1_Stream5_IRQHandler                           build/startup_stm32f446xx.o
DMA1_Stream6_IRQHandler                           build/startup_stm32f446xx.o
DMA1_Stream7_IRQHandler                           build/startup_stm32f446xx.o
DMA2_Stream0_IRQHandler                           build/startup_stm32f446xx.o
DMA2_Stream1_IRQHandler                           build/startup_stm32f446xx.o
DMA2_Stream2_IRQHandler                           build/startup_stm32f446xx.o
DMA2_Stream3_IRQHandler                           build/startup_stm32f446xx.o
DMA2_Stream4_IRQHandler                           build/startup_stm32f446xx.o
DMA2_Stream5_IRQHandler                           build/startup_stm32f446xx.o
DMA2_Stream6_IRQHandler                           build/startup_stm32f446xx.o
DMA2_Stream7_IRQHandler                           build/startup_stm32f446xx.o
DebugMon_Handler                                  build/stm32f4xx_it.o
Default_Handler                                   build/startup_stm32f446xx.o
EXTI0_IRQHandler                                  build/startup_stm32f446xx.o
EXTI15_10_IRQHandler                              build/startup_stm32f446xx.o
EXTI1_IRQHandler                                  build/startup_stm32f446xx.o
EXTI2_IRQHandler                                  build/startup_stm32f446xx.o
EXTI3_IRQHandler                                  build/startup_stm32f446xx.o
EXTI4_IRQHandler                                  build/startup_stm32f446xx.o
EXTI9_5_IRQHandler                                build/button.o
FLASH_IRQHandler                                  build/startup_stm32f446xx.o
FMC_IRQHandler                                    build/startup_stm32f446xx.o
FMPI2C1_Error_IRQHandler                          build/startup_stm32f446xx.o
FMPI2C1_Event_IRQHandler                          build/startup_stm32f446xx.o
FPU_IRQHandler                                    build/startup_stm32f446xx.o
HAL_ADCEx_InjectedConfigChannel                   build/stm32f4_HAL/stm32f4xx_hal_adc_ex.o
HAL_ADCEx_InjectedConvCpltCallback                build/stm32f4_HAL/stm32f4xx_hal_adc_ex.o
                                                  build/stm32f4_HAL/stm32f4xx_hal_adc.o
HAL_ADCEx_InjectedGetValue                        build/stm32f4_HAL/stm32f4xx_hal_adc_ex.o
HAL_ADCEx_InjectedPollForConversion               build/stm32f4_HAL/stm32f4xx_hal_adc_ex.o
HAL_ADCEx_InjectedStart                           build/stm32f4_HAL/stm32f4xx_hal_adc_ex.o
HAL_ADCEx_InjectedStart_IT                        build/stm32f4_HAL/stm32f4xx_hal_adc_ex.o
HAL_ADCEx_InjectedStop                            build/stm32f4_HAL/stm32f4xx_hal_adc_ex.o
HAL_ADCEx_InjectedStop_IT                         build/stm32f4_HAL/stm32f4xx_hal_adc_ex.o
HAL_ADCEx_MultiModeConfigChannel                  build/stm32f4_HAL/stm32f4xx_hal_adc_ex.o
HAL_ADCEx_MultiModeGetValue                       build/stm32f4_HAL/stm32f4xx_hal_adc_ex.o
HAL_ADCEx_MultiModeStart_DMA                      build/stm32f4_HAL/stm32f4xx_hal_adc_ex.o
HAL_ADCEx_MultiModeStop_DMA                       build/stm32f4_HAL/stm32f4xx_hal_adc_ex.o
HAL_ADC_AnalogWDGConfig                           build/stm32f4_HAL/stm32f4xx_hal_adc.o
HAL_ADC_ConfigChannel                             build/stm32f4_HAL/stm32f4xx_hal_adc.o
                                                  build/potentiometer.o
HAL_ADC_ConvCpltCallback                          build/stm32f4_HAL/stm32f4xx_hal_adc.o
                                                  build/stm32f4_HAL/stm32f4xx_hal_adc_ex.o
HAL_ADC_ConvHalfCpltCallback                      build/stm32f4_HAL/stm32f4xx_hal_adc.o
                                                  build/stm32f4_HAL/stm32f4xx_hal_adc_ex.o
HAL_ADC_DeInit                                    build/stm32f4_HAL/stm32f4xx_hal_adc.o
HAL_ADC_ErrorCallback                             build/stm32f4_HAL/stm32f4xx_hal_adc.o
                                                  build/stm32f4_HAL/stm32f4xx_hal_adc_ex.o
HAL_ADC_GetError                                  build/stm32f4_HAL/stm32f4xx_hal_adc.o
HAL_ADC_GetState                                  build/stm32f4_HAL/stm32f4xx_hal_adc.o
HAL_ADC_GetValue                                  build/stm32f4_HAL/stm32f4xx_hal_adc.o
                                                  build/potentiometer.o
HAL_ADC_IRQHandler                                build/stm32f4_HAL/stm32f4xx_hal_adc.o
HAL_ADC_Init                                      build/stm32f4_HAL/stm32f4xx_hal_adc.o
                                                  build/potentiometer.o
HAL_ADC_LevelOutOfWindowCallback                  build/stm32f4_HAL/stm32f4xx_hal_adc.o
HAL_ADC_MspDeInit                                 build/stm32f4_HAL/stm32f4xx_hal_adc.o
HAL_ADC_MspInit                                   build/stm32f4xx_hal_msp.o
HAL_ADC_PollForConversion                         build/stm32f4_HAL/stm32f4xx_hal_adc.o
                                                  build/potentiometer.o
HAL_ADC_PollForEvent                              build/stm32f4_HAL/stm32f4xx_hal_adc.o
HAL_ADC_Start                                     build/stm32f4_HAL/stm32f4xx_hal_adc.o
                                                  build/potentiometer.o
HAL_ADC_Start_DMA                                 build/stm32f4_HAL/stm32f4xx_hal_adc.o
HAL_ADC_Start_IT                                  build/stm32f4_HAL/stm32f4xx_hal_adc.o
HAL_ADC_Stop                                      build/stm32f4_HAL/stm32f4xx_hal_adc.o
HAL_ADC_Stop_DMA                                  build/stm32f4_HAL/stm32f4xx_hal_adc.o
HAL_ADC_Stop_IT                                   build/stm32f4_HAL/stm32f4xx_hal_adc.o
HAL_DBGMCU_DisableDBGSleepMode                    build/stm32f4_HAL/stm32f4xx_hal.o
HAL_DBGMCU_DisableDBGStandbyMode                  build/stm32f4_HAL/stm32f4xx_hal.o
HAL_DBGMCU_DisableDBGStopMode                     build/stm32f4_HAL/stm32f4xx_hal.o
HAL_DBGMCU_EnableDBGSleepMode                     build/stm32f4_HAL/stm32f4xx_hal.o
HAL_DBGMCU_EnableDBGStandbyMode                   build/stm32f4_HAL/stm32f4xx_hal.o
HAL_DBGMCU_EnableDBGStopMode                      build/stm32f4_HAL/stm32f4xx_hal.o
HAL_DMA_Abort                                     build/stm32f4_HAL/stm32f4xx_hal_dma.o
                                                  build/stm32f4_HAL/stm32f4xx_hal_spi.o
                                                  build/stm32f4_HAL/stm32f4xx_hal_adc_ex.o
                                                  build/stm32f4_HAL/stm32f4xx_hal_adc.o
HAL_DMA_Abort_IT                                  build/stm32f4_HAL/stm32f4xx_hal_dma.o
                                                  build/stm32f4_HAL/stm32f4xx_hal_spi.o
                                                  build/stm32f4_HAL/stm32f4xx_hal_tim_ex.o
                                                  build/stm32f4_HAL/stm32f4xx_hal_tim.o
                                                  build/stm32f4_HAL/stm32f4xx_hal_i2c.o
HAL_DMA_DeInit                                    build/stm32f4_HAL/stm32f4xx_hal_dma.o
HAL_DMA_GetError                                  build/stm32f4_HAL/stm32f4xx_hal_dma.o
                                                  build/stm32f4_HAL/stm32f4xx_hal_i2c.o
HAL_DMA_GetState                                  build/stm32f4_HAL/stm32f4xx_hal_dma.o
                                                  build/stm32f4_HAL/stm32f4xx_hal_i2c.o
HAL_DMA_IRQHandler                                build/stm32f4_HAL/stm32f4xx_hal_dma.o
HAL_DMA_Init                                      build/stm32f4_HAL/stm32f4xx_hal_dma.o
HAL_DMA_PollForTransfer                           build/stm32f4_HAL/stm32f4xx_hal_dma.o
HAL_DMA_RegisterCallback                          build/stm32f4_HAL/stm32f4xx_hal_dma.o
HAL_DMA_Start                                     build/stm32f4_HAL/stm32f4xx_hal_dma.o
HAL_DMA_Start_IT                                  build/stm32f4_HAL/stm32f4xx_hal_dma.o
                                                  build/stm32f4_HAL/stm32f4xx_hal_spi.o
                                                  build/stm32f4_HAL/stm32f4xx_hal_tim_ex.o
                                                  build/stm32f4_HAL/stm32f4xx_hal_tim.o
                                                  build/stm32f4_HAL/stm32f4xx_hal_i2c.o
                                                  build/stm32f4_HAL/stm32f4xx_hal_adc_ex.o
                                                  build/stm32f4_HAL/stm32f4xx_hal_adc.o
HAL_DMA_UnRegisterCallback                        build/stm32f4_HAL/stm32f4xx_hal_dma.o
HAL_DeInit                                        build/stm32f4_HAL/stm32f4xx_hal.o
HAL_Delay                                         build/stm32f4_HAL/stm32f4xx_hal.o
HAL_DisableCompensationCell                       build/stm32f4_HAL/stm32f4xx_hal.o
HAL_EnableCompensationCell                        build/stm32f4_HAL/stm32f4xx_hal.o
HAL_GPIO_DeInit                                   build/stm32f4_HAL/stm32f4xx_hal_gpio.o
HAL_GPIO_EXTI_Callback                            build/stm32f4_HAL/stm32f4xx_hal_gpio.o
HAL_GPIO_EXTI_IRQHandler                          build/stm32f4_HAL/stm32f4xx_hal_gpio.o
                                                  build/button.o
HAL_GPIO_Init                                     build/stm32f4_HAL/stm32f4xx_hal_gpio.o
                                                  build/stm32f4_HAL/stm32f4xx_hal_rcc.o
                                                  build/stm32f4xx_hal_msp.o
                                                  build/button.o
HAL_GPIO_LockPin                                  build/stm32f4_HAL/stm32f4xx_hal_gpio.o
HAL_GPIO_ReadPin                                  build/stm32f4_HAL/stm32f4xx_hal_gpio.o
HAL_GPIO_TogglePin                                build/stm32f4_HAL/stm32f4xx_hal_gpio.o
HAL_GPIO_WritePin                                 build/stm32f4_HAL/stm32f4xx_hal_gpio.o
HAL_GetDEVID                                      build/stm32f4_HAL/stm32f4xx_hal.o
HAL_GetHalVersion                                 build/stm32f4_HAL/stm32f4xx_hal.o
HAL_GetREVID                                      build/stm32f4_HAL/stm32f4xx_hal.o
HAL_GetTick                                       build/stm32f4_HAL/stm32f4xx_hal.o
                                                  build/stm32f4_HAL/stm32f4xx_hal_spi.o
                                                  build/stm32f4_HAL/stm32f4xx_hal_pwr_ex.o
                                                  build/stm32f4_HAL/stm32f4xx_hal_rcc_ex.o
                                                  build/stm32f4_HAL/stm32f4xx_hal_rcc.o
                                                  build/stm32f4_HAL/stm32f4xx_hal_i2c.o
                                                  build/stm32f4_HAL/stm32f4xx_hal_adc_ex.o
                                                  build/stm32f4_HAL/stm32f4xx_hal_adc.o
                                                  build/stm32f4_HAL/stm32f4xx_hal_dma.o
HAL_GetTickFreq                                   build/stm32f4_HAL/stm32f4xx_hal.o
HAL_GetTickPrio                                   build/stm32f4_HAL/stm32f4xx_hal.o
HAL_GetUIDw0                                      build/stm32f4_HAL/stm32f4xx_hal.o
HAL_GetUIDw1                                      build/stm32f4_HAL/stm32f4xx_hal.o
HAL_GetUIDw2                                      build/stm32f4_HAL/stm32f4xx_hal.o
HAL_I2CEx_ConfigAnalogFilter                      build/stm32f4_HAL/stm32f4xx_hal_i2c_ex.o
HAL_I2CEx_ConfigDigitalFilter                     build/stm32f4_HAL/stm32f4xx_hal_i2c_ex.o
HAL_I2C_AbortCpltCallback                         build/stm32f4_HAL/stm32f4xx_hal_i2c.o
HAL_I2C_AddrCallback                              build/stm32f4_HAL/stm32f4xx_hal_i2c.o
HAL_I2C_DeInit                                    build/stm32f4_HAL/stm32f4xx_hal_i2c.o
HAL_I2C_DisableListen_IT                          build/stm32f4_HAL/stm32f4xx_hal_i2c.o
HAL_I2C_ER_IRQHandler                             build/stm32f4_HAL/stm32f4xx_hal_i2c.o
HAL_I2C_EV_IRQHandler                             build/stm32f4_HAL/stm32f4xx_hal_i2c.o
HAL_I2C_EnableListen_IT                           build/stm32f4_HAL/stm32f4xx_hal_i2c.o
HAL_I2C_ErrorCallback                             build/stm32f4_HAL/stm32f4xx_hal_i2c.o
HAL_I2C_GetError                                  build/stm32f4_HAL/stm32f4xx_hal_i2c.o
HAL_I2C_GetMode                                   build/stm32f4_HAL/stm32f4xx_hal_i2c.o
HAL_I2C_GetState                                  build/stm32f4_HAL/stm32f4xx_hal_i2c.o
HAL_I2C_Init                                      build/stm32f4_HAL/stm32f4xx_hal_i2c.o
HAL_I2C_IsDeviceReady                             build/stm32f4_HAL/stm32f4xx_hal_i2c.o
HAL_I2C_ListenCpltCallback                        build/stm32f4_HAL/stm32f4xx_hal_i2c.o
HAL_I2C_MasterRxCpltCallback                      build/stm32f4_HAL/stm32f4xx_hal_i2c.o
HAL_I2C_MasterTxCpltCallback                      build/stm32f4_HAL/stm32f4xx_hal_i2c.o
HAL_I2C_Master_Abort_IT                           build/stm32f4_HAL/stm32f4xx_hal_i2c.o
HAL_I2C_Master_Receive                            build/stm32f4_HAL/stm32f4xx_hal_i2c.o
HAL_I2C_Master_Receive_DMA                        build/stm32f4_HAL/stm32f4xx_hal_i2c.o
HAL_I2C_Master_Receive_IT                         build/stm32f4_HAL/stm32f4xx_hal_i2c.o
HAL_I2C_Master_Seq_Receive_DMA                    build/stm32f4_HAL/stm32f4xx_hal_i2c.o
HAL_I2C_Master_Seq_Receive_IT                     build/stm32f4_HAL/stm32f4xx_hal_i2c.o
HAL_I2C_Master_Seq_Transmit_DMA                   build/stm32f4_HAL/stm32f4xx_hal_i2c.o
HAL_I2C_Master_Seq_Transmit_IT                    build/stm32f4_HAL/stm32f4xx_hal_i2c.o
HAL_I2C_Master_Transmit                           build/stm32f4_HAL/stm32f4xx_hal_i2c.o
HAL_I2C_Master_Transmit_DMA                       build/stm32f4_HAL/stm32f4xx_hal_i2c.o
HAL_I2C_Master_Transmit_IT                        build/stm32f4_HAL/stm32f4xx_hal_i2c.o
HAL_I2C_MemRxCpltCallback                         build/stm32f4_HAL/stm32f4xx_hal_i2c.o
HAL_I2C_MemTxCpltCallback                         build/stm32f4_HAL/stm32f4xx_hal_i2c.o
HAL_I2C_Mem_Read                                  build/stm32f4_HAL/stm32f4xx_hal_i2c.o
HAL_I2C_Mem_Read_DMA                              build/stm32f4_HAL/stm32f4xx_hal_i2c.o
HAL_I2C_Mem_Read_IT                               build/stm32f4_HAL/stm32f4xx_hal_i2c.o
HAL_I2C_Mem_Write                                 build/stm32f4_HAL/stm32f4xx_hal_i2c.o
HAL_I2C_Mem_Write_DMA                             build/stm32f4_HAL/stm32f4xx_hal_i2c.o
HAL_I2C_Mem_Write_IT                              build/stm32f4_HAL/stm32f4xx_hal_i2c.o
HAL_I2C_MspDeInit                                 build/stm32f4_HAL/stm32f4xx_hal_i2c.o
HAL_I2C_MspInit                                   build/stm32f4_HAL/stm32f4xx_hal_i2c.o
HAL_I2C_SlaveRxCpltCallback                       build/stm32f4_HAL/stm32f4xx_hal_i2c.o
HAL_I2C_SlaveTxCpltCallback                       build/stm32f4_HAL/stm32f4xx_hal_i2c.o
HAL_I2C_Slave_Receive                             build/stm32f4_HAL/stm32f4xx_hal_i2c.o
HAL_I2C_Slave_Receive_DMA                         build/stm32f4_HAL/stm32f4xx_hal_i2c.o
HAL_I2C_Slave_Receive_IT                          build/stm32f4_HAL/stm32f4xx_hal_i2c.o
HAL_I2C_Slave_Seq_Receive_DMA                     build/stm32f4_HAL/stm32f4xx_hal_i2c.o
HAL_I2C_Slave_Seq_Receive_IT                      build/stm32f4_HAL/stm32f4xx_hal_i2c.o
HAL_I2C_Slave_Seq_Transmit_DMA                    build/stm32f4_HAL/stm32f4xx_hal_i2c.o
HAL_I2C_Slave_Seq_Transmit_IT                     build/stm32f4_HAL/stm32f4xx_hal_i2c.o
HAL_I2C_Slave_Transmit                            build/stm32f4_HAL/stm32f4xx_hal_i2c.o
HAL_I2C_Slave_Transmit_DMA                        build/stm32f4_HAL/stm32f4xx_hal_i2c.o
HAL_I2C_Slave_Transmit_IT                         build/stm32f4_HAL/stm32f4xx_hal_i2c.o
HAL_IncTick                                       build/stm32f4_HAL/stm32f4xx_hal.o
                                                  build/FreeRTOS/port.o
HAL_Init                                          build/stm32f4_HAL/stm32f4xx_hal.o
                                                  build/main.o
HAL_InitTick                                      build/stm32f4_HAL/stm32f4xx_hal.o
                                                  build/stm32f4_HAL/stm32f4xx_hal_rcc_ex.o
                                                  build/stm32f4_HAL/stm32f4xx_hal_rcc.o
HAL_MPU_ConfigRegion                              build/stm32f4_HAL/stm32f4xx_hal_cortex.o
HAL_MPU_Disable                                   build/stm32f4_HAL/stm32f4xx_hal_cortex.o
HAL_MPU_Enable                                    build/stm32f4_HAL/stm32f4xx_hal_cortex.o
HAL_MspDeInit                                     build/stm32f4_HAL/stm32f4xx_hal.o
HAL_MspInit                                       build/stm32f4_HAL/stm32f4xx_hal.o
HAL_NVIC_ClearPendingIRQ                          build/stm32f4_HAL/stm32f4xx_hal_cortex.o
HAL_NVIC_DisableIRQ                               build/stm32f4_HAL/stm32f4xx_hal_cortex.o
HAL_NVIC_EnableIRQ                                build/stm32f4_HAL/stm32f4xx_hal_cortex.o
                                                  build/button.o
HAL_NVIC_GetActive                                build/stm32f4_HAL/stm32f4xx_hal_cortex.o
HAL_NVIC_GetPendingIRQ                            build/stm32f4_HAL/stm32f4xx_hal_cortex.o
HAL_NVIC_GetPriority                              build/stm32f4_HAL/stm32f4xx_hal_cortex.o
HAL_NVIC_GetPriorityGrouping                      build/stm32f4_HAL/stm32f4xx_hal_cortex.o
HAL_NVIC_SetPendingIRQ                            build/stm32f4_HAL/stm32f4xx_hal_cortex.o
HAL_NVIC_SetPriority                              build/stm32f4_HAL/stm32f4xx_hal_cortex.o
                                                  build/stm32f4_HAL/stm32f4xx_hal.o
                                                  build/button.o
HAL_NVIC_SetPriorityGrouping                      build/stm32f4_HAL/stm32f4xx_hal_cortex.o
                                                  build/stm32f4_HAL/stm32f4xx_hal.o
HAL_NVIC_SystemReset                              build/stm32f4_HAL/stm32f4xx_hal_cortex.o
HAL_PWREx_ControlVoltageScaling                   build/stm32f4_HAL/stm32f4xx_hal_pwr_ex.o
HAL_PWREx_DisableBkUpReg                          build/stm32f4_HAL/stm32f4xx_hal_pwr_ex.o
HAL_PWREx_DisableFlashPowerDown                   build/stm32f4_HAL/stm32f4xx_hal_pwr_ex.o
HAL_PWREx_DisableOverDrive                        build/stm32f4_HAL/stm32f4xx_hal_pwr_ex.o
HAL_PWREx_EnableBkUpReg                           build/stm32f4_HAL/stm32f4xx_hal_pwr_ex.o
HAL_PWREx_EnableFlashPowerDown                    build/stm32f4_HAL/stm32f4xx_hal_pwr_ex.o
HAL_PWREx_EnableOverDrive                         build/stm32f4_HAL/stm32f4xx_hal_pwr_ex.o
HAL_PWREx_EnterUnderDriveSTOPMode                 build/stm32f4_HAL/stm32f4xx_hal_pwr_ex.o
HAL_PWREx_GetVoltageRange                         build/stm32f4_HAL/stm32f4xx_hal_pwr_ex.o
HAL_PWR_ConfigPVD                                 build/stm32f4_HAL/stm32f4xx_hal_pwr.o
HAL_PWR_DeInit                                    build/stm32f4_HAL/stm32f4xx_hal_pwr.o
HAL_PWR_DisableBkUpAccess                         build/stm32f4_HAL/stm32f4xx_hal_pwr.o
HAL_PWR_DisablePVD                                build/stm32f4_HAL/stm32f4xx_hal_pwr.o
HAL_PWR_DisableSEVOnPend                          build/stm32f4_HAL/stm32f4xx_hal_pwr.o
HAL_PWR_DisableSleepOnExit                        build/stm32f4_HAL/stm32f4xx_hal_pwr.o
HAL_PWR_DisableWakeUpPin                          build/stm32f4_HAL/stm32f4xx_hal_pwr.o
HAL_PWR_EnableBkUpAccess                          build/stm32f4_HAL/stm32f4xx_hal_pwr.o
HAL_PWR_EnablePVD                                 build/stm32f4_HAL/stm32f4xx_hal_pwr.o
HAL_PWR_EnableSEVOnPend                           build/stm32f4_HAL/stm32f4xx_hal_pwr.o
HAL_PWR_EnableSleepOnExit                         build/stm32f4_HAL/stm32f4xx_hal_pwr.o
HAL_PWR_EnableWakeUpPin                           build/stm32f4_HAL/stm32f4xx_hal_pwr.o
HAL_PWR_EnterSLEEPMode                            build/stm32f4_HAL/stm32f4xx_hal_pwr.o
HAL_PWR_EnterSTANDBYMode                          build/stm32f4_HAL/stm32f4xx_hal_pwr.o
HAL_PWR_EnterSTOPMode                             build/stm32f4_HAL/stm32f4xx_hal_pwr.o
HAL_PWR_PVDCallback                               build/stm32f4_HAL/stm32f4xx_hal_pwr.o
HAL_PWR_PVD_IRQHandler                            build/stm32f4_HAL/stm32f4xx_hal_pwr.o
HAL_RCCEx_DisablePLLI2S                           build/stm32f4_HAL/stm32f4xx_hal_rcc_ex.o
HAL_RCCEx_DisablePLLSAI                           build/stm32f4_HAL/stm32f4xx_hal_rcc_ex.o
HAL_RCCEx_EnablePLLI2S                            build/stm32f4_HAL/stm32f4xx_hal_rcc_ex.o
HAL_RCCEx_EnablePLLSAI                            build/stm32f4_HAL/stm32f4xx_hal_rcc_ex.o
HAL_RCCEx_GetPeriphCLKConfig                      build/stm32f4_HAL/stm32f4xx_hal_rcc_ex.o
HAL_RCCEx_GetPeriphCLKFreq                        build/stm32f4_HAL/stm32f4xx_hal_rcc_ex.o
HAL_RCCEx_PeriphCLKConfig                         build/stm32f4_HAL/stm32f4xx_hal_rcc_ex.o
HAL_RCCEx_SelectLSEMode                           build/stm32f4_HAL/stm32f4xx_hal_rcc_ex.o
HAL_RCC_CSSCallback                               build/stm32f4_HAL/stm32f4xx_hal_rcc.o
HAL_RCC_ClockConfig                               build/stm32f4_HAL/stm32f4xx_hal_rcc.o
                                                  build/main.o
HAL_RCC_DeInit                                    build/stm32f4_HAL/stm32f4xx_hal_rcc_ex.o
                                                  build/stm32f4_HAL/stm32f4xx_hal_rcc.o
HAL_RCC_DisableCSS                                build/stm32f4_HAL/stm32f4xx_hal_rcc.o
HAL_RCC_EnableCSS                                 build/stm32f4_HAL/stm32f4xx_hal_rcc.o
HAL_RCC_GetClockConfig                            build/stm32f4_HAL/stm32f4xx_hal_rcc.o
HAL_RCC_GetHCLKFreq                               build/stm32f4_HAL/stm32f4xx_hal_rcc.o
HAL_RCC_GetOscConfig                              build/stm32f4_HAL/stm32f4xx_hal_rcc_ex.o
                                                  build/stm32f4_HAL/stm32f4xx_hal_rcc.o
HAL_RCC_GetPCLK1Freq                              build/stm32f4_HAL/stm32f4xx_hal_rcc.o
                                                  build/stm32f4_HAL/stm32f4xx_hal_i2c.o
HAL_RCC_GetPCLK2Freq                              build/stm32f4_HAL/stm32f4xx_hal_rcc.o
HAL_RCC_GetSysClockFreq                           build/stm32f4_HAL/stm32f4xx_hal_rcc_ex.o
                                                  build/stm32f4_HAL/stm32f4xx_hal_rcc.o
HAL_RCC_MCOConfig                                 build/stm32f4_HAL/stm32f4xx_hal_rcc.o
HAL_RCC_NMI_IRQHandler                            build/stm32f4_HAL/stm32f4xx_hal_rcc.o
HAL_RCC_OscConfig                                 build/stm32f4_HAL/stm32f4xx_hal_rcc_ex.o
                                                  build/stm32f4_HAL/stm32f4xx_hal_rcc.o
                                                  build/main.o
HAL_ResumeTick                                    build/stm32f4_HAL/stm32f4xx_hal.o
HAL_SPI_Abort                                     build/stm32f4_HAL/stm32f4xx_hal_spi.o
HAL_SPI_AbortCpltCallback                         build/stm32f4_HAL/stm32f4xx_hal_spi.o
HAL_SPI_Abort_IT                                  build/stm32f4_HAL/stm32f4xx_hal_spi.o
HAL_SPI_DMAPause                                  build/stm32f4_HAL/stm32f4xx_hal_spi.o
HAL_SPI_DMAResume                                 build/stm32f4_HAL/stm32f4xx_hal_spi.o
HAL_SPI_DMAStop                                   build/stm32f4_HAL/stm32f4xx_hal_spi.o
HAL_SPI_DeInit                                    build/stm32f4_HAL/stm32f4xx_hal_spi.o
HAL_SPI_ErrorCallback                             build/stm32f4_HAL/stm32f4xx_hal_spi.o
HAL_SPI_GetError                                  build/stm32f4_HAL/stm32f4xx_hal_spi.o
HAL_SPI_GetState                                  build/stm32f4_HAL/stm32f4xx_hal_spi.o
HAL_SPI_IRQHandler                                build/stm32f4_HAL/stm32f4xx_hal_spi.o
HAL_SPI_Init                                      build/stm32f4_HAL/stm32f4xx_hal_spi.o
HAL_SPI_MspDeInit                                 build/stm32f4_HAL/stm32f4xx_hal_spi.o
HAL_SPI_MspInit                                   build/stm32f4_HAL/stm32f4xx_hal_spi.o
HAL_SPI_Receive                                   build/stm32f4_HAL/stm32f4xx_hal_spi.o
HAL_SPI_Receive_DMA                               build/stm32f4_HAL/stm32f4xx_hal_spi.o
HAL_SPI_Receive_IT                                build/stm32f4_HAL/stm32f4xx_hal_spi.o
HAL_SPI_RxCpltCallback                            build/stm32f4_HAL/stm32f4xx_hal_spi.o
HAL_SPI_RxHalfCpltCallback                        build/stm32f4_HAL/stm32f4xx_hal_spi.o
HAL_SPI_Transmit                                  build/stm32f4_HAL/stm32f4xx_hal_spi.o
HAL_SPI_TransmitReceive                           build/stm32f4_HAL/stm32f4xx_hal_spi.o
HAL_SPI_TransmitReceive_DMA                       build/stm32f4_HAL/stm32f4xx_hal_spi.o
HAL_SPI_TransmitReceive_IT                        build/stm32f4_HAL/stm32f4xx_hal_spi.o
HAL_SPI_Transmit_DMA                              build/stm32f4_HAL/stm32f4xx_hal_spi.o
HAL_SPI_Transmit_IT                               build/stm32f4_HAL/stm32f4xx_hal_spi.o
HAL_SPI_TxCpltCallback                            build/stm32f4_HAL/stm32f4xx_hal_spi.o
HAL_SPI_TxHalfCpltCallback                        build/stm32f4_HAL/stm32f4xx_hal_spi.o
HAL_SPI_TxRxCpltCallback                          build/stm32f4_HAL/stm32f4xx_hal_spi.o
HAL_SPI_TxRxHalfCpltCallback                      build/stm32f4_HAL/stm32f4xx_hal_spi.o
HAL_SYSTICK_CLKSourceConfig                       build/stm32f4_HAL/stm32f4xx_hal_cortex.o
HAL_SYSTICK_Callback                              build/stm32f4_HAL/stm32f4xx_hal_cortex.o
HAL_SYSTICK_Config                                build/stm32f4_HAL/stm32f4xx_hal_cortex.o
                                                  build/stm32f4_HAL/stm32f4xx_hal.o
HAL_SYSTICK_IRQHandler                            build/stm32f4_HAL/stm32f4xx_hal_cortex.o
HAL_SetTickFreq                                   build/stm32f4_HAL/stm32f4xx_hal.o
HAL_SuspendTick                                   build/stm32f4_HAL/stm32f4xx_hal.o
HAL_TIMEx_BreakCallback                           build/stm32f4_HAL/stm32f4xx_hal_tim_ex.o
                                                  build/stm32f4_HAL/stm32f4xx_hal_tim.o
HAL_TIMEx_CommutCallback                          build/stm32f4_HAL/stm32f4xx_hal_tim_ex.o
                                                  build/stm32f4_HAL/stm32f4xx_hal_tim.o
HAL_TIMEx_CommutHalfCpltCallback                  build/stm32f4_HAL/stm32f4xx_hal_tim_ex.o
HAL_TIMEx_ConfigBreakDeadTime                     build/stm32f4_HAL/stm32f4xx_hal_tim_ex.o
HAL_TIMEx_ConfigCommutEvent                       build/stm32f4_HAL/stm32f4xx_hal_tim_ex.o
HAL_TIMEx_ConfigCommutEvent_DMA                   build/stm32f4_HAL/stm32f4xx_hal_tim_ex.o
HAL_TIMEx_ConfigCommutEvent_IT                    build/stm32f4_HAL/stm32f4xx_hal_tim_ex.o
HAL_TIMEx_HallSensor_DeInit                       build/stm32f4_HAL/stm32f4xx_hal_tim_ex.o
HAL_TIMEx_HallSensor_GetState                     build/stm32f4_HAL/stm32f4xx_hal_tim_ex.o
HAL_TIMEx_HallSensor_Init                         build/stm32f4_HAL/stm32f4xx_hal_tim_ex.o
HAL_TIMEx_HallSensor_MspDeInit                    build/stm32f4_HAL/stm32f4xx_hal_tim_ex.o
HAL_TIMEx_HallSensor_MspInit                      build/stm32f4_HAL/stm32f4xx_hal_tim_ex.o
HAL_TIMEx_HallSensor_Start                        build/stm32f4_HAL/stm32f4xx_hal_tim_ex.o
HAL_TIMEx_HallSensor_Start_DMA                    build/stm32f4_HAL/stm32f4xx_hal_tim_ex.o
HAL_TIMEx_HallSensor_Start_IT                     build/stm32f4_HAL/stm32f4xx_hal_tim_ex.o
HAL_TIMEx_HallSensor_Stop                         build/stm32f4_HAL/stm32f4xx_hal_tim_ex.o
HAL_TIMEx_HallSensor_Stop_DMA                     build/stm32f4_HAL/stm32f4xx_hal_tim_ex.o
HAL_TIMEx_HallSensor_Stop_IT                      build/stm32f4_HAL/stm32f4xx_hal_tim_ex.o
HAL_TIMEx_MasterConfigSynchronization             build/stm32f4_HAL/stm32f4xx_hal_tim_ex.o
HAL_TIMEx_OCN_Start                               build/stm32f4_HAL/stm32f4xx_hal_tim_ex.o
HAL_TIMEx_OCN_Start_DMA                           build/stm32f4_HAL/stm32f4xx_hal_tim_ex.o
HAL_TIMEx_OCN_Start_IT                            build/stm32f4_HAL/stm32f4xx_hal_tim_ex.o
HAL_TIMEx_OCN_Stop                                build/stm32f4_HAL/stm32f4xx_hal_tim_ex.o
HAL_TIMEx_OCN_Stop_DMA                            build/stm32f4_HAL/stm32f4xx_hal_tim_ex.o
HAL_TIMEx_OCN_Stop_IT                             build/stm32f4_HAL/stm32f4xx_hal_tim_ex.o
HAL_TIMEx_OnePulseN_Start                         build/stm32f4_HAL/stm32f4xx_hal_tim_ex.o
HAL_TIMEx_OnePulseN_Start_IT                      build/stm32f4_HAL/stm32f4xx_hal_tim_ex.o
HAL_TIMEx_OnePulseN_Stop                          build/stm32f4_HAL/stm32f4xx_hal_tim_ex.o
HAL_TIMEx_OnePulseN_Stop_IT                       build/stm32f4_HAL/stm32f4xx_hal_tim_ex.o
HAL_TIMEx_PWMN_Start                              build/stm32f4_HAL/stm32f4xx_hal_tim_ex.o
HAL_TIMEx_PWMN_Start_DMA                          build/stm32f4_HAL/stm32f4xx_hal_tim_ex.o
HAL_TIMEx_PWMN_Start_IT                           build/stm32f4_HAL/stm32f4xx_hal_tim_ex.o
HAL_TIMEx_PWMN_Stop                               build/stm32f4_HAL/stm32f4xx_hal_tim_ex.o
HAL_TIMEx_PWMN_Stop_DMA                           build/stm32f4_HAL/stm32f4xx_hal_tim_ex.o
HAL_TIMEx_PWMN_Stop_IT                            build/stm32f4_HAL/stm32f4xx_hal_tim_ex.o
HAL_TIMEx_RemapConfig                             build/stm32f4_HAL/stm32f4xx_hal_tim_ex.o
HAL_TIM_Base_DeInit                               build/stm32f4_HAL/stm32f4xx_hal_tim.o
HAL_TIM_Base_GetState                             build/stm32f4_HAL/stm32f4xx_hal_tim.o
HAL_TIM_Base_Init                                 build/stm32f4_HAL/stm32f4xx_hal_tim.o
HAL_TIM_Base_MspDeInit                            build/stm32f4_HAL/stm32f4xx_hal_tim.o
HAL_TIM_Base_MspInit                              build/stm32f4_HAL/stm32f4xx_hal_tim.o
HAL_TIM_Base_Start                                build/stm32f4_HAL/stm32f4xx_hal_tim.o
HAL_TIM_Base_Start_DMA                            build/stm32f4_HAL/stm32f4xx_hal_tim.o
HAL_TIM_Base_Start_IT                             build/stm32f4_HAL/stm32f4xx_hal_tim.o
HAL_TIM_Base_Stop                                 build/stm32f4_HAL/stm32f4xx_hal_tim.o
HAL_TIM_Base_Stop_DMA                             build/stm32f4_HAL/stm32f4xx_hal_tim.o
HAL_TIM_Base_Stop_IT                              build/stm32f4_HAL/stm32f4xx_hal_tim.o
HAL_TIM_ConfigClockSource                         build/stm32f4_HAL/stm32f4xx_hal_tim.o
HAL_TIM_ConfigOCrefClear                          build/stm32f4_HAL/stm32f4xx_hal_tim.o
HAL_TIM_ConfigTI1Input                            build/stm32f4_HAL/stm32f4xx_hal_tim.o
HAL_TIM_DMABurst_ReadStart                        build/stm32f4_HAL/stm32f4xx_hal_tim.o
HAL_TIM_DMABurst_ReadStop                         build/stm32f4_HAL/stm32f4xx_hal_tim.o
HAL_TIM_DMABurst_WriteStart                       build/stm32f4_HAL/stm32f4xx_hal_tim.o
HAL_TIM_DMABurst_WriteStop                        build/stm32f4_HAL/stm32f4xx_hal_tim.o
HAL_TIM_Encoder_DeInit                            build/stm32f4_HAL/stm32f4xx_hal_tim.o
HAL_TIM_Encoder_GetState                          build/stm32f4_HAL/stm32f4xx_hal_tim.o
HAL_TIM_Encoder_Init                              build/stm32f4_HAL/stm32f4xx_hal_tim.o
HAL_TIM_Encoder_MspDeInit                         build/stm32f4_HAL/stm32f4xx_hal_tim.o
HAL_TIM_Encoder_MspInit                           build/stm32f4_HAL/stm32f4xx_hal_tim.o
HAL_TIM_Encoder_Start                             build/stm32f4_HAL/stm32f4xx_hal_tim.o
HAL_TIM_Encoder_Start_DMA                         build/stm32f4_HAL/stm32f4xx_hal_tim.o
HAL_TIM_Encoder_Start_IT                          build/stm32f4_HAL/stm32f4xx_hal_tim.o
HAL_TIM_Encoder_Stop                              build/stm32f4_HAL/stm32f4xx_hal_tim.o
HAL_TIM_Encoder_Stop_DMA                          build/stm32f4_HAL/stm32f4xx_hal_tim.o
HAL_TIM_Encoder_Stop_IT                           build/stm32f4_HAL/stm32f4xx_hal_tim.o
HAL_TIM_ErrorCallback                             build/stm32f4_HAL/stm32f4xx_hal_tim.o
HAL_TIM_GenerateEvent                             build/stm32f4_HAL/stm32f4xx_hal_tim.o
HAL_TIM_IC_CaptureCallback                        build/stm32f4_HAL/stm32f4xx_hal_tim.o
HAL_TIM_IC_CaptureHalfCpltCallback                build/stm32f4_HAL/stm32f4xx_hal_tim.o
HAL_TIM_IC_ConfigChannel                          build/stm32f4_HAL/stm32f4xx_hal_tim.o
HAL_TIM_IC_DeInit                                 build/stm32f4_HAL/stm32f4xx_hal_tim.o
HAL_TIM_IC_GetState                               build/stm32f4_HAL/stm32f4xx_hal_tim.o
HAL_TIM_IC_Init                                   build/stm32f4_HAL/stm32f4xx_hal_tim.o
HAL_TIM_IC_MspDeInit                              build/stm32f4_HAL/stm32f4xx_hal_tim.o
HAL_TIM_IC_MspInit                                build/stm32f4_HAL/stm32f4xx_hal_tim.o
HAL_TIM_IC_Start                                  build/stm32f4_HAL/stm32f4xx_hal_tim.o
HAL_TIM_IC_Start_DMA                              build/stm32f4_HAL/stm32f4xx_hal_tim.o
HAL_TIM_IC_Start_IT                               build/stm32f4_HAL/stm32f4xx_hal_tim.o
HAL_TIM_IC_Stop                                   build/stm32f4_HAL/stm32f4xx_hal_tim.o
HAL_TIM_IC_Stop_DMA                               build/stm32f4_HAL/stm32f4xx_hal_tim.o
HAL_TIM_IC_Stop_IT                                build/stm32f4_HAL/stm32f4xx_hal_tim.o
HAL_TIM_IRQHandler                                build/stm32f4_HAL/stm32f4xx_hal_tim.o
HAL_TIM_OC_ConfigChannel                          build/stm32f4_HAL/stm32f4xx_hal_tim.o
HAL_TIM_OC_DeInit                                 build/stm32f4_HAL/stm32f4xx_hal_tim.o
HAL_TIM_OC_DelayElapsedCallback                   build/stm32f4_HAL/stm32f4xx_hal_tim.o
HAL_TIM_OC_GetState                               build/stm32f4_HAL/stm32f4xx_hal_tim.o
HAL_TIM_OC_Init                                   build/stm32f4_HAL/stm32f4xx_hal_tim.o
HAL_TIM_OC_MspDeInit                              build/stm32f4_HAL/stm32f4xx_hal_tim.o
HAL_TIM_OC_MspInit                                build/stm32f4_HAL/stm32f4xx_hal_tim.o
HAL_TIM_OC_Start                                  build/stm32f4_HAL/stm32f4xx_hal_tim.o
HAL_TIM_OC_Start_DMA                              build/stm32f4_HAL/stm32f4xx_hal_tim.o
HAL_TIM_OC_Start_IT                               build/stm32f4_HAL/stm32f4xx_hal_tim.o
HAL_TIM_OC_Stop                                   build/stm32f4_HAL/stm32f4xx_hal_tim.o
HAL_TIM_OC_Stop_DMA                               build/stm32f4_HAL/stm32f4xx_hal_tim.o
HAL_TIM_OC_Stop_IT                                build/stm32f4_HAL/stm32f4xx_hal_tim.o
HAL_TIM_OnePulse_ConfigChannel                    build/stm32f4_HAL/stm32f4xx_hal_tim.o
HAL_TIM_OnePulse_DeInit                           build/stm32f4_HAL/stm32f4xx_hal_tim.o
HAL_TIM_OnePulse_GetState                         build/stm32f4_HAL/stm32f4xx_hal_tim.o
HAL_TIM_OnePulse_Init                             build/stm32f4_HAL/stm32f4xx_hal_tim.o
HAL_TIM_OnePulse_MspDeInit                        build/stm32f4_HAL/stm32f4xx_hal_tim.o
HAL_TIM_OnePulse_MspInit                          build/stm32f4_HAL/stm32f4xx_hal_tim.o
HAL_TIM_OnePulse_Start                            build/stm32f4_HAL/stm32f4xx_hal_tim.o
HAL_TIM_OnePulse_Start_IT                         build/stm32f4_HAL/stm32f4xx_hal_tim.o
HAL_TIM_OnePulse_Stop                             build/stm32f4_HAL/stm32f4xx_hal_tim.o
HAL_TIM_OnePulse_Stop_IT                          build/stm32f4_HAL/stm32f4xx_hal_tim.o
HAL_TIM_PWM_ConfigChannel                         build/stm32f4_HAL/stm32f4xx_hal_tim.o
                                                  build/heartbeat_task.o
                                                  build/led_rgb.o
HAL_TIM_PWM_DeInit                                build/stm32f4_HAL/stm32f4xx_hal_tim.o
HAL_TIM_PWM_GetState                              build/stm32f4_HAL/stm32f4xx_hal_tim.o
HAL_TIM_PWM_Init                                  build/stm32f4_HAL/stm32f4xx_hal_tim.o
                                                  build/heartbeat_task.o
                                                  build/led_rgb.o
HAL_TIM_PWM_MspDeInit                             build/stm32f4_HAL/stm32f4xx_hal_tim.o
HAL_TIM_PWM_MspInit                               build/stm32f4xx_hal_msp.o
HAL_TIM_PWM_PulseFinishedCallback                 build/stm32f4_HAL/stm32f4xx_hal_tim.o
HAL_TIM_PWM_PulseFinishedHalfCpltCallback         build/stm32f4_HAL/stm32f4xx_hal_tim.o
HAL_TIM_PWM_Start                                 build/stm32f4_HAL/stm32f4xx_hal_tim.o
                                                  build/heartbeat_task.o
                                                  build/led_rgb.o
HAL_TIM_PWM_Start_DMA                             build/stm32f4_HAL/stm32f4xx_hal_tim.o
HAL_TIM_PWM_Start_IT                              build/stm32f4_HAL/stm32f4xx_hal_tim.o
HAL_TIM_PWM_Stop                                  build/stm32f4_HAL/stm32f4xx_hal_tim.o
HAL_TIM_PWM_Stop_DMA                              build/stm32f4_HAL/stm32f4xx_hal_tim.o
HAL_TIM_PWM_Stop_IT                               build/stm32f4_HAL/stm32f4xx_hal_tim.o
HAL_TIM_PeriodElapsedCallback                     build/stm32f4_HAL/stm32f4xx_hal_tim.o
HAL_TIM_PeriodElapsedHalfCpltCallback             build/stm32f4_HAL/stm32f4xx_hal_tim.o
HAL_TIM_ReadCapturedValue                         build/stm32f4_HAL/stm32f4xx_hal_tim.o
HAL_TIM_SlaveConfigSynchro                        build/stm32f4_HAL/stm32f4xx_hal_tim.o
HAL_TIM_SlaveConfigSynchro_IT                     build/stm32f4_HAL/stm32f4xx_hal_tim.o
HAL_TIM_TriggerCallback                           build/stm32f4_HAL/stm32f4xx_hal_tim.o
HAL_TIM_TriggerHalfCpltCallback                   build/stm32f4_HAL/stm32f4xx_hal_tim.o
HardFault_Handler                                 build/stm32f4xx_it.o
I2C1_ER_IRQHandler                                build/startup_stm32f446xx.o
I2C1_EV_IRQHandler                                build/startup_stm32f446xx.o
I2C2_ER_IRQHandler                                build/startup_stm32f446xx.o
I2C2_EV_IRQHandler                                build/startup_stm32f446xx.o
I2C3_ER_IRQHandler                                build/startup_stm32f446xx.o
I2C3_EV_IRQHandler                                build/startup_stm32f446xx.o
LL_DMA_DeInit                                     build/stm32f4_HAL/stm32f4xx_ll_dma.o
LL_DMA_Init                                       build/stm32f4_HAL/stm32f4xx_ll_dma.o
LL_DMA_StructInit                                 build/stm32f4_HAL/stm32f4xx_ll_dma.o
LL_GPIO_DeInit                                    build/stm32f4_HAL/stm32f4xx_ll_gpio.o
LL_GPIO_Init                                      build/stm32f4_HAL/stm32f4xx_ll_gpio.o
LL_GPIO_StructInit                                build/stm32f4_HAL/stm32f4xx_ll_gpio.o
LL_RCC_DeInit                                     build/stm32f4_HAL/stm32f4xx_ll_rcc.o
LL_RCC_GetCECClockFreq                            build/stm32f4_HAL/stm32f4xx_ll_rcc.o
LL_RCC_GetFMPI2CClockFreq                         build/stm32f4_HAL/stm32f4xx_ll_rcc.o
LL_RCC_GetI2SClockFreq                            build/stm32f4_HAL/stm32f4xx_ll_rcc.o
LL_RCC_GetSAIClockFreq                            build/stm32f4_HAL/stm32f4xx_ll_rcc.o
LL_RCC_GetSDIOClockFreq                           build/stm32f4_HAL/stm32f4xx_ll_rcc.o
LL_RCC_GetSPDIFRXClockFreq                        build/stm32f4_HAL/stm32f4xx_ll_rcc.o
LL_RCC_GetSystemClocksFreq                        build/stm32f4_HAL/stm32f4xx_ll_rcc.o
                                                  build/stm32f4_HAL/stm32f4xx_ll_usart.o
LL_RCC_GetUSBClockFreq                            build/stm32f4_HAL/stm32f4xx_ll_rcc.o
LL_USART_ClockInit                                build/stm32f4_HAL/stm32f4xx_ll_usart.o
LL_USART_ClockStructInit                          build/stm32f4_HAL/stm32f4xx_ll_usart.o
LL_USART_DeInit                                   build/stm32f4_HAL/stm32f4xx_ll_usart.o
LL_USART_Init                                     build/stm32f4_HAL/stm32f4xx_ll_usart.o
LL_USART_StructInit                               build/stm32f4_HAL/stm32f4xx_ll_usart.o
MemManage_Handler                                 build/stm32f4xx_it.o
NMI_Handler                                       build/stm32f4xx_it.o
OS_Tick_AcknowledgeIRQ                            build/FreeRTOS/os_systick.o
OS_Tick_Disable                                   build/FreeRTOS/os_systick.o
OS_Tick_Enable                                    build/FreeRTOS/os_systick.o
OS_Tick_GetClock                                  build/FreeRTOS/os_systick.o
OS_Tick_GetCount                                  build/FreeRTOS/os_systick.o
                                                  build/FreeRTOS/cmsis_os2.o
OS_Tick_GetIRQn                                   build/FreeRTOS/os_systick.o
OS_Tick_GetInterval                               build/FreeRTOS/os_systick.o
                                                  build/FreeRTOS/cmsis_os2.o
OS_Tick_GetOverflow                               build/FreeRTOS/os_systick.o
                                                  build/FreeRTOS/cmsis_os2.o
OS_Tick_Setup                                     build/FreeRTOS/os_systick.o
OTG_FS_IRQHandler                                 build/startup_stm32f446xx.o
OTG_FS_WKUP_IRQHandler                            build/startup_stm32f446xx.o
OTG_HS_EP1_IN_IRQHandler                          build/startup_stm32f446xx.o
OTG_HS_EP1_OUT_IRQHandler                         build/startup_stm32f446xx.o
OTG_HS_IRQHandler                                 build/startup_stm32f446xx.o
OTG_HS_WKUP_IRQHandler                            build/startup_stm32f446xx.o
PVD_IRQHandler                                    build/startup_stm32f446xx.o
PendSV_Handler                                    build/FreeRTOS/port.o
                                                  build/startup_stm32f446xx.o
QUADSPI_IRQHandler                                build/startup_stm32f446xx.o
RCC_GetHCLKClockFreq                              build/stm32f4_HAL/stm32f4xx_ll_rcc.o
RCC_GetPCLK1ClockFreq                             build/stm32f4_HAL/stm32f4xx_ll_rcc.o
RCC_GetPCLK2ClockFreq                             build/stm32f4_HAL/stm32f4xx_ll_rcc.o
RCC_GetSystemClockFreq                            build/stm32f4_HAL/stm32f4xx_ll_rcc.o
RCC_IRQHandler                                    build/startup_stm32f446xx.o
RCC_PLLI2S_GetFreqDomain_I2S                      build/stm32f4_HAL/stm32f4xx_ll_rcc.o
RCC_PLLI2S_GetFreqDomain_SAI                      build/stm32f4_HAL/stm32f4xx_ll_rcc.o
RCC_PLLI2S_GetFreqDomain_SPDIFRX                  build/stm32f4_HAL/stm32f4xx_ll_rcc.o
RCC_PLLSAI_GetFreqDomain_48M                      build/stm32f4_HAL/stm32f4xx_ll_rcc.o
RCC_PLLSAI_GetFreqDomain_SAI                      build/stm32f4_HAL/stm32f4xx_ll_rcc.o
RCC_PLL_GetFreqDomain_48M                         build/stm32f4_HAL/stm32f4xx_ll_rcc.o
RCC_PLL_GetFreqDomain_I2S                         build/stm32f4_HAL/stm32f4xx_ll_rcc.o
RCC_PLL_GetFreqDomain_SAI                         build/stm32f4_HAL/stm32f4xx_ll_rcc.o
RCC_PLL_GetFreqDomain_SPDIFRX                     build/stm32f4_HAL/stm32f4xx_ll_rcc.o
RCC_PLL_GetFreqDomain_SYS                         build/stm32f4_HAL/stm32f4xx_ll_rcc.o
RTC_Alarm_IRQHandler                              build/startup_stm32f446xx.o
RTC_WKUP_IRQHandler                               build/startup_stm32f446xx.o
Reset_Handler                                     build/startup_stm32f446xx.o
SAI1_IRQHandler                                   build/startup_stm32f446xx.o
SAI2_IRQHandler                                   build/startup_stm32f446xx.o
SDIO_IRQHandler                                   build/startup_stm32f446xx.o
SPDIF_RX_IRQHandler                               build/startup_stm32f446xx.o
SPI1_IRQHandler                                   build/startup_stm32f446xx.o
SPI2_IRQHandler                                   build/startup_stm32f446xx.o
SPI3_IRQHandler                                   build/startup_stm32f446xx.o
SPI4_IRQHandler                                   build/startup_stm32f446xx.o
SVC_Handler                                       build/FreeRTOS/port.o
                                                  build/startup_stm32f446xx.o
SysTick_Handler                                   build/FreeRTOS/cmsis_os2.o
                                                  build/startup_stm32f446xx.o
SystemCoreClock                                   build/system_stm32f4xx.o
                                                  build/FreeRTOS/port.o
                                                  build/FreeRTOS/os_systick.o
                                                  build/FreeRTOS/cmsis_os2.o
                                                  build/stm32f4_HAL/stm32f4xx_hal_spi.o
                                                  build/stm32f4_HAL/stm32f4xx_hal_rcc_ex.o
                                                  build/stm32f4_HAL/stm32f4xx_hal_rcc.o
                                                  build/stm32f4_HAL/stm32f4xx_hal_i2c.o
                                                  build/stm32f4_HAL/stm32f4xx_hal_adc_ex.o
                                                  build/stm32f4_HAL/stm32f4xx_hal_adc.o
                                                  build/stm32f4_HAL/stm32f4xx_hal_dma.o
                                                  build/stm32f4_HAL/stm32f4xx_hal.o
                                                  build/uart.o
SystemCoreClockUpdate                             build/system_stm32f4xx.o
SystemInit                                        build/system_stm32f4xx.o
                                                  build/startup_stm32f446xx.o
TAMP_STAMP_IRQHandler                             build/startup_stm32f446xx.o
TIM1_BRK_TIM9_IRQHandler                          build/startup_stm32f446xx.o
TIM1_CC_IRQHandler                                build/startup_stm32f446xx.o
TIM1_TRG_COM_TIM11_IRQHandler                     build/startup_stm32f446xx.o
TIM1_UP_TIM10_IRQHandler                          build/startup_stm32f446xx.o
TIM2_IRQHandler                                   build/startup_stm32f446xx.o
TIM3_IRQHandler                                   build/startup_stm32f446xx.o
TIM4_IRQHandler                                   build/startup_stm32f446xx.o
TIM5_IRQHandler                                   build/startup_stm32f446xx.o
TIM6_DAC_IRQHandler                               build/startup_stm32f446xx.o
TIM7_IRQHandler                                   build/startup_stm32f446xx.o
TIM8_BRK_TIM12_IRQHandler                         build/startup_stm32f446xx.o
TIM8_CC_IRQHandler                                build/startup_stm32f446xx.o
TIM8_TRG_COM_TIM14_IRQHandler                     build/startup_stm32f446xx.o
TIM8_UP_TIM13_IRQHandler                          build/startup_stm32f446xx.o
TIMEx_DMACommutationCplt                          build/stm32f4_HAL/stm32f4xx_hal_tim_ex.o
                                                  build/stm32f4_HAL/stm32f4xx_hal_tim.o
TIMEx_DMACommutationHalfCplt                      build/stm32f4_HAL/stm32f4xx_hal_tim_ex.o
                                                  build/stm32f4_HAL/stm32f4xx_hal_tim.o
TIM_Base_SetConfig                                build/stm32f4_HAL/stm32f4xx_hal_tim.o
                                                  build/stm32f4_HAL/stm32f4xx_hal_tim_ex.o
TIM_CCxChannelCmd                                 build/stm32f4_HAL/stm32f4xx_hal_tim.o
                                                  build/stm32f4_HAL/stm32f4xx_hal_tim_ex.o
TIM_DMACaptureCplt                                build/stm32f4_HAL/stm32f4xx_hal_tim.o
                                                  build/stm32f4_HAL/stm32f4xx_hal_tim_ex.o
TIM_DMACaptureHalfCplt                            build/stm32f4_HAL/stm32f4xx_hal_tim.o
                                                  build/stm32f4_HAL/stm32f4xx_hal_tim_ex.o
TIM_DMADelayPulseCplt                             build/stm32f4_HAL/stm32f4xx_hal_tim.o
                                                  build/stm32f4_HAL/stm32f4xx_hal_tim_ex.o
TIM_DMADelayPulseHalfCplt                         build/stm32f4_HAL/stm32f4xx_hal_tim.o
                                                  build/stm32f4_HAL/stm32f4xx_hal_tim_ex.o
TIM_DMAError                                      build/stm32f4_HAL/stm32f4xx_hal_tim.o
                                                  build/stm32f4_HAL/stm32f4xx_hal_tim_ex.o
TIM_ETR_SetConfig                                 build/stm32f4_HAL/stm32f4xx_hal_tim.o
TIM_OC2_SetConfig                                 build/stm32f4_HAL/stm32f4xx_hal_tim.o
                                                  build/stm32f4_HAL/stm32f4xx_hal_tim_ex.o
TIM_TI1_SetConfig                                 build/stm32f4_HAL/stm32f4xx_hal_tim.o
                                                  build/stm32f4_HAL/stm32f4xx_hal_tim_ex.o
UART4_IRQHandler                                  build/startup_stm32f446xx.o
UART5_IRQHandler                                  build/startup_stm32f446xx.o
USART1_IRQHandler                                 build/startup_stm32f446xx.o
USART2_IRQHandler                                 build/uart.o
USART3_IRQHandler                                 build/startup_stm32f446xx.o
USART6_IRQHandler                                 build/startup_stm32f446xx.o
UsageFault_Handler                                build/stm32f4xx_it.o
WWDG_IRQHandler                                   build/startup_stm32f446xx.o
_Balloc                                           d:/toolchain/gcc-arm-none-eabi/bin/../lib/gcc/arm-none-eabi/9.2.1/../../../../arm-none-eabi/lib/thumb/v7e-m+fp/hard\libc_nano.a(lib_a-mprec.o)
                                                  d:/toolchain/gcc-arm-none-eabi/bin/../lib/gcc/arm-none-eabi/9.2.1/../../../../arm-none-eabi/lib/thumb/v7e-m+fp/hard\libc_nano.a(lib_a-gdtoa-gethex.o)
                                                  d:/toolchain/gcc-arm-none-eabi/bin/../lib/gcc/arm-none-eabi/9.2.1/../../../../arm-none-eabi/lib/thumb/v7e-m+fp/hard\libc_nano.a(lib_a-dtoa.o)
                                                  d:/toolchain/gcc-arm-none-eabi/bin/../lib/gcc/arm-none-eabi/9.2.1/../../../../arm-none-eabi/lib/thumb/v7e-m+fp/hard\libc_nano.a(lib_a-strtod.o)
_Bfree                                            d:/toolchain/gcc-arm-none-eabi/bin/../lib/gcc/arm-none-eabi/9.2.1/../../../../arm-none-eabi/lib/thumb/v7e-m+fp/hard\libc_nano.a(lib_a-mprec.o)
                                                  d:/toolchain/gcc-arm-none-eabi/bin/../lib/gcc/arm-none-eabi/9.2.1/../../../../arm-none-eabi/lib/thumb/v7e-m+fp/hard\libc_nano.a(lib_a-gdtoa-gethex.o)
                                                  d:/toolchain/gcc-arm-none-eabi/bin/../lib/gcc/arm-none-eabi/9.2.1/../../../../arm-none-eabi/lib/thumb/v7e-m+fp/hard\libc_nano.a(lib_a-dtoa.o)
                                                  d:/toolchain/gcc-arm-none-eabi/bin/../lib/gcc/arm-none-eabi/9.2.1/../../../../arm-none-eabi/lib/thumb/v7e-m+fp/hard\libc_nano.a(lib_a-strtod.o)
_C_numeric_locale                                 d:/toolchain/gcc-arm-none-eabi/bin/../lib/gcc/arm-none-eabi/9.2.1/../../../../arm-none-eabi/lib/thumb/v7e-m+fp/hard\libc_nano.a(lib_a-lnumeric.o)
                                                  d:/toolchain/gcc-arm-none-eabi/bin/../lib/gcc/arm-none-eabi/9.2.1/../../../../arm-none-eabi/lib/thumb/v7e-m+fp/hard\libc_nano.a(lib_a-gdtoa-gethex.o)
                                                  d:/toolchain/gcc-arm-none-eabi/bin/../lib/gcc/arm-none-eabi/9.2.1/../../../../arm-none-eabi/lib/thumb/v7e-m+fp/hard\libc_nano.a(lib_a-strtod.o)
_Min_Heap_Size                                    build/FreeRTOS/heap_useNewlib.o
_PathLocale                                       d:/toolchain/gcc-arm-none-eabi/bin/../lib/gcc/arm-none-eabi/9.2.1/../../../../arm-none-eabi/lib/thumb/v7e-m+fp/hard\libc_nano.a(lib_a-locale.o)
__HeapBase                                        build/FreeRTOS/heap_useNewlib.o
__HeapLimit                                       build/FreeRTOS/heap_useNewlib.o
__adddf3                                          d:/toolchain/gcc-arm-none-eabi/bin/../lib/gcc/arm-none-eabi/9.2.1/thumb/v7e-m+fp/hard\libgcc.a(_arm_addsubdf3.o)
__aeabi_cdcmpeq                                   d:/toolchain/gcc-arm-none-eabi/bin/../lib/gcc/arm-none-eabi/9.2.1/thumb/v7e-m+fp/hard\libgcc.a(_arm_cmpdf2.o)
__aeabi_cdcmple                                   d:/toolchain/gcc-arm-none-eabi/bin/../lib/gcc/arm-none-eabi/9.2.1/thumb/v7e-m+fp/hard\libgcc.a(_arm_cmpdf2.o)
__aeabi_cdrcmple                                  d:/toolchain/gcc-arm-none-eabi/bin/../lib/gcc/arm-none-eabi/9.2.1/thumb/v7e-m+fp/hard\libgcc.a(_arm_cmpdf2.o)
__aeabi_d2f                                       d:/toolchain/gcc-arm-none-eabi/bin/../lib/gcc/arm-none-eabi/9.2.1/thumb/v7e-m+fp/hard\libgcc.a(_arm_truncdfsf2.o)
                                                  d:/toolchain/gcc-arm-none-eabi/bin/../lib/gcc/arm-none-eabi/9.2.1/../../../../arm-none-eabi/lib/thumb/v7e-m+fp/hard\libc_nano.a(lib_a-strtod.o)
                                                  d:/toolchain/gcc-arm-none-eabi/bin/../lib/gcc/arm-none-eabi/9.2.1/../../../../arm-none-eabi/lib/thumb/v7e-m+fp/hard\libc_nano.a(lib_a-nano-vfscanf_float.o)
__aeabi_d2iz                                      d:/toolchain/gcc-arm-none-eabi/bin/../lib/gcc/arm-none-eabi/9.2.1/thumb/v7e-m+fp/hard\libgcc.a(_arm_fixdfsi.o)
                                                  d:/toolchain/gcc-arm-none-eabi/bin/../lib/gcc/arm-none-eabi/9.2.1/../../../../arm-none-eabi/lib/thumb/v7e-m+fp/hard\libc_nano.a(lib_a-dtoa.o)
__aeabi_d2lz                                      d:/toolchain/gcc-arm-none-eabi/bin/../lib/gcc/arm-none-eabi/9.2.1/thumb/v7e-m+fp/hard\libgcc.a(_fixdfdi.o)
                                                  d:/toolchain/gcc-arm-none-eabi/bin/../lib/gcc/arm-none-eabi/9.2.1/../../../../arm-none-eabi/lib/thumb/v7e-m+fp/hard\libc_nano.a(lib_a-strtod.o)
__aeabi_d2uiz                                     d:/toolchain/gcc-arm-none-eabi/bin/../lib/gcc/arm-none-eabi/9.2.1/thumb/v7e-m+fp/hard\libgcc.a(_arm_fixunsdfsi.o)
                                                  d:/toolchain/gcc-arm-none-eabi/bin/../lib/gcc/arm-none-eabi/9.2.1/thumb/v7e-m+fp/hard\libgcc.a(_fixunsdfdi.o)
                                                  d:/toolchain/gcc-arm-none-eabi/bin/../lib/gcc/arm-none-eabi/9.2.1/../../../../arm-none-eabi/lib/thumb/v7e-m+fp/hard\libc_nano.a(lib_a-strtod.o)
__aeabi_d2ulz                                     d:/toolchain/gcc-arm-none-eabi/bin/../lib/gcc/arm-none-eabi/9.2.1/thumb/v7e-m+fp/hard\libgcc.a(_fixunsdfdi.o)
                                                  d:/toolchain/gcc-arm-none-eabi/bin/../lib/gcc/arm-none-eabi/9.2.1/thumb/v7e-m+fp/hard\libgcc.a(_fixdfdi.o)
__aeabi_dadd                                      d:/toolchain/gcc-arm-none-eabi/bin/../lib/gcc/arm-none-eabi/9.2.1/thumb/v7e-m+fp/hard\libgcc.a(_arm_addsubdf3.o)
                                                  d:/toolchain/gcc-arm-none-eabi/bin/../lib/gcc/arm-none-eabi/9.2.1/../../../../arm-none-eabi/lib/thumb/v7e-m+fp/hard\libc_nano.a(lib_a-dtoa.o)
                                                  d:/toolchain/gcc-arm-none-eabi/bin/../lib/gcc/arm-none-eabi/9.2.1/../../../../arm-none-eabi/lib/thumb/v7e-m+fp/hard\libc_nano.a(lib_a-strtod.o)
__aeabi_dcmpeq                                    d:/toolchain/gcc-arm-none-eabi/bin/../lib/gcc/arm-none-eabi/9.2.1/thumb/v7e-m+fp/hard\libgcc.a(_arm_cmpdf2.o)
                                                  d:/toolchain/gcc-arm-none-eabi/bin/../lib/gcc/arm-none-eabi/9.2.1/../../../../arm-none-eabi/lib/thumb/v7e-m+fp/hard\libc_nano.a(lib_a-dtoa.o)
                                                  d:/toolchain/gcc-arm-none-eabi/bin/../lib/gcc/arm-none-eabi/9.2.1/../../../../arm-none-eabi/lib/thumb/v7e-m+fp/hard\libc_nano.a(lib_a-strtod.o)
                                                  d:/toolchain/gcc-arm-none-eabi/bin/../lib/gcc/arm-none-eabi/9.2.1/../../../../arm-none-eabi/lib/thumb/v7e-m+fp/hard\libc_nano.a(lib_a-nano-vfprintf_float.o)
__aeabi_dcmpge                                    d:/toolchain/gcc-arm-none-eabi/bin/../lib/gcc/arm-none-eabi/9.2.1/thumb/v7e-m+fp/hard\libgcc.a(_arm_cmpdf2.o)
                                                  d:/toolchain/gcc-arm-none-eabi/bin/../lib/gcc/arm-none-eabi/9.2.1/../../../../arm-none-eabi/lib/thumb/v7e-m+fp/hard\libc_nano.a(lib_a-dtoa.o)
__aeabi_dcmpgt                                    d:/toolchain/gcc-arm-none-eabi/bin/../lib/gcc/arm-none-eabi/9.2.1/thumb/v7e-m+fp/hard\libgcc.a(_arm_cmpdf2.o)
                                                  d:/toolchain/gcc-arm-none-eabi/bin/../lib/gcc/arm-none-eabi/9.2.1/../../../../arm-none-eabi/lib/thumb/v7e-m+fp/hard\libc_nano.a(lib_a-dtoa.o)
                                                  d:/toolchain/gcc-arm-none-eabi/bin/../lib/gcc/arm-none-eabi/9.2.1/../../../../arm-none-eabi/lib/thumb/v7e-m+fp/hard\libc_nano.a(lib_a-strtod.o)
__aeabi_dcmple                                    d:/toolchain/gcc-arm-none-eabi/bin/../lib/gcc/arm-none-eabi/9.2.1/thumb/v7e-m+fp/hard\libgcc.a(_arm_cmpdf2.o)
                                                  d:/toolchain/gcc-arm-none-eabi/bin/../lib/gcc/arm-none-eabi/9.2.1/../../../../arm-none-eabi/lib/thumb/v7e-m+fp/hard\libc_nano.a(lib_a-strtod.o)
                                                  d:/toolchain/gcc-arm-none-eabi/bin/../lib/gcc/arm-none-eabi/9.2.1/../../../../arm-none-eabi/lib/thumb/v7e-m+fp/hard\libc_nano.a(lib_a-nano-vfprintf_float.o)
__aeabi_dcmplt                                    d:/toolchain/gcc-arm-none-eabi/bin/../lib/gcc/arm-none-eabi/9.2.1/thumb/v7e-m+fp/hard\libgcc.a(_arm_cmpdf2.o)
                                                  d:/toolchain/gcc-arm-none-eabi/bin/../lib/gcc/arm-none-eabi/9.2.1/thumb/v7e-m+fp/hard\libgcc.a(_fixdfdi.o)
                                                  d:/toolchain/gcc-arm-none-eabi/bin/../lib/gcc/arm-none-eabi/9.2.1/../../../../arm-none-eabi/lib/thumb/v7e-m+fp/hard\libc_nano.a(lib_a-dtoa.o)
                                                  d:/toolchain/gcc-arm-none-eabi/bin/../lib/gcc/arm-none-eabi/9.2.1/../../../../arm-none-eabi/lib/thumb/v7e-m+fp/hard\libc_nano.a(lib_a-strtod.o)
                                                  d:/toolchain/gcc-arm-none-eabi/bin/../lib/gcc/arm-none-eabi/9.2.1/../../../../arm-none-eabi/lib/thumb/v7e-m+fp/hard\libc_nano.a(lib_a-nano-vfprintf_float.o)
__aeabi_dcmpun                                    d:/toolchain/gcc-arm-none-eabi/bin/../lib/gcc/arm-none-eabi/9.2.1/thumb/v7e-m+fp/hard\libgcc.a(_arm_unorddf2.o)
                                                  d:/toolchain/gcc-arm-none-eabi/bin/../lib/gcc/arm-none-eabi/9.2.1/../../../../arm-none-eabi/lib/thumb/v7e-m+fp/hard\libc_nano.a(lib_a-strtod.o)
                                                  d:/toolchain/gcc-arm-none-eabi/bin/../lib/gcc/arm-none-eabi/9.2.1/../../../../arm-none-eabi/lib/thumb/v7e-m+fp/hard\libc_nano.a(lib_a-nano-vfscanf_float.o)
                                                  d:/toolchain/gcc-arm-none-eabi/bin/../lib/gcc/arm-none-eabi/9.2.1/../../../../arm-none-eabi/lib/thumb/v7e-m+fp/hard\libc_nano.a(lib_a-nano-vfprintf_float.o)
__aeabi_ddiv                                      d:/toolchain/gcc-arm-none-eabi/bin/../lib/gcc/arm-none-eabi/9.2.1/thumb/v7e-m+fp/hard\libgcc.a(_arm_muldivdf3.o)
                                                  d:/toolchain/gcc-arm-none-eabi/bin/../lib/gcc/arm-none-eabi/9.2.1/../../../../arm-none-eabi/lib/thumb/v7e-m+fp/hard\libc_nano.a(lib_a-mprec.o)
                                                  d:/toolchain/gcc-arm-none-eabi/bin/../lib/gcc/arm-none-eabi/9.2.1/../../../../arm-none-eabi/lib/thumb/v7e-m+fp/hard\libc_nano.a(lib_a-dtoa.o)
                                                  d:/toolchain/gcc-arm-none-eabi/bin/../lib/gcc/arm-none-eabi/9.2.1/../../../../arm-none-eabi/lib/thumb/v7e-m+fp/hard\libc_nano.a(lib_a-strtod.o)
__aeabi_dmul                                      d:/toolchain/gcc-arm-none-eabi/bin/../lib/gcc/arm-none-eabi/9.2.1/thumb/v7e-m+fp/hard\libgcc.a(_arm_muldivdf3.o)
                                                  d:/toolchain/gcc-arm-none-eabi/bin/../lib/gcc/arm-none-eabi/9.2.1/thumb/v7e-m+fp/hard\libgcc.a(_arm_muldf3.o)
                                                  d:/toolchain/gcc-arm-none-eabi/bin/../lib/gcc/arm-none-eabi/9.2.1/thumb/v7e-m+fp/hard\libgcc.a(_fixunsdfdi.o)
                                                  d:/toolchain/gcc-arm-none-eabi/bin/../lib/gcc/arm-none-eabi/9.2.1/../../../../arm-none-eabi/lib/thumb/v7e-m+fp/hard\libc_nano.a(lib_a-mprec.o)
                                                  d:/toolchain/gcc-arm-none-eabi/bin/../lib/gcc/arm-none-eabi/9.2.1/../../../../arm-none-eabi/lib/thumb/v7e-m+fp/hard\libc_nano.a(lib_a-dtoa.o)
                                                  d:/toolchain/gcc-arm-none-eabi/bin/../lib/gcc/arm-none-eabi/9.2.1/../../../../arm-none-eabi/lib/thumb/v7e-m+fp/hard\libc_nano.a(lib_a-strtod.o)
__aeabi_drsub                                     d:/toolchain/gcc-arm-none-eabi/bin/../lib/gcc/arm-none-eabi/9.2.1/thumb/v7e-m+fp/hard\libgcc.a(_arm_addsubdf3.o)
__aeabi_dsub                                      d:/toolchain/gcc-arm-none-eabi/bin/../lib/gcc/arm-none-eabi/9.2.1/thumb/v7e-m+fp/hard\libgcc.a(_arm_addsubdf3.o)
                                                  d:/toolchain/gcc-arm-none-eabi/bin/../lib/gcc/arm-none-eabi/9.2.1/thumb/v7e-m+fp/hard\libgcc.a(_fixunsdfdi.o)
                                                  d:/toolchain/gcc-arm-none-eabi/bin/../lib/gcc/arm-none-eabi/9.2.1/../../../../arm-none-eabi/lib/thumb/v7e-m+fp/hard\libc_nano.a(lib_a-dtoa.o)
                                                  d:/toolchain/gcc-arm-none-eabi/bin/../lib/gcc/arm-none-eabi/9.2.1/../../../../arm-none-eabi/lib/thumb/v7e-m+fp/hard\libc_nano.a(lib_a-strtod.o)
__aeabi_f2d                                       d:/toolchain/gcc-arm-none-eabi/bin/../lib/gcc/arm-none-eabi/9.2.1/thumb/v7e-m+fp/hard\libgcc.a(_arm_addsubdf3.o)
__aeabi_i2d                                       d:/toolchain/gcc-arm-none-eabi/bin/../lib/gcc/arm-none-eabi/9.2.1/thumb/v7e-m+fp/hard\libgcc.a(_arm_addsubdf3.o)
                                                  d:/toolchain/gcc-arm-none-eabi/bin/../lib/gcc/arm-none-eabi/9.2.1/../../../../arm-none-eabi/lib/thumb/v7e-m+fp/hard\libc_nano.a(lib_a-dtoa.o)
__aeabi_idiv0                                     d:/toolchain/gcc-arm-none-eabi/bin/../lib/gcc/arm-none-eabi/9.2.1/thumb/v7e-m+fp/hard\libgcc.a(_dvmd_tls.o)
__aeabi_l2d                                       d:/toolchain/gcc-arm-none-eabi/bin/../lib/gcc/arm-none-eabi/9.2.1/thumb/v7e-m+fp/hard\libgcc.a(_arm_addsubdf3.o)
                                                  d:/toolchain/gcc-arm-none-eabi/bin/../lib/gcc/arm-none-eabi/9.2.1/../../../../arm-none-eabi/lib/thumb/v7e-m+fp/hard\libc_nano.a(lib_a-strtod.o)
__aeabi_ldiv0                                     d:/toolchain/gcc-arm-none-eabi/bin/../lib/gcc/arm-none-eabi/9.2.1/thumb/v7e-m+fp/hard\libgcc.a(_dvmd_tls.o)
                                                  d:/toolchain/gcc-arm-none-eabi/bin/../lib/gcc/arm-none-eabi/9.2.1/thumb/v7e-m+fp/hard\libgcc.a(_aeabi_uldivmod.o)
                                                  d:/toolchain/gcc-arm-none-eabi/bin/../lib/gcc/arm-none-eabi/9.2.1/thumb/v7e-m+fp/hard\libgcc.a(_aeabi_ldivmod.o)
__aeabi_ldivmod                                   d:/toolchain/gcc-arm-none-eabi/bin/../lib/gcc/arm-none-eabi/9.2.1/thumb/v7e-m+fp/hard\libgcc.a(_aeabi_ldivmod.o)
                                                  build/stm32f4_HAL/stm32f4xx_hal_rcc_ex.o
                                                  build/stm32f4_HAL/stm32f4xx_hal_rcc.o
                                                  build/stm32f4_HAL/stm32f4xx_ll_usart.o
                                                  build/uart.o
__aeabi_ui2d                                      d:/toolchain/gcc-arm-none-eabi/bin/../lib/gcc/arm-none-eabi/9.2.1/thumb/v7e-m+fp/hard\libgcc.a(_arm_addsubdf3.o)
                                                  d:/toolchain/gcc-arm-none-eabi/bin/../lib/gcc/arm-none-eabi/9.2.1/thumb/v7e-m+fp/hard\libgcc.a(_fixunsdfdi.o)
                                                  d:/toolchain/gcc-arm-none-eabi/bin/../lib/gcc/arm-none-eabi/9.2.1/../../../../arm-none-eabi/lib/thumb/v7e-m+fp/hard\libc_nano.a(lib_a-dtoa.o)
                                                  d:/toolchain/gcc-arm-none-eabi/bin/../lib/gcc/arm-none-eabi/9.2.1/../../../../arm-none-eabi/lib/thumb/v7e-m+fp/hard\libc_nano.a(lib_a-strtod.o)
__aeabi_ul2d                                      d:/toolchain/gcc-arm-none-eabi/bin/../lib/gcc/arm-none-eabi/9.2.1/thumb/v7e-m+fp/hard\libgcc.a(_arm_addsubdf3.o)
__aeabi_uldivmod                                  d:/toolchain/gcc-arm-none-eabi/bin/../lib/gcc/arm-none-eabi/9.2.1/thumb/v7e-m+fp/hard\libgcc.a(_aeabi_uldivmod.o)
                                                  build/stm32f4_HAL/stm32f4xx_hal_rcc_ex.o
                                                  build/stm32f4_HAL/stm32f4xx_hal_rcc.o
                                                  build/stm32f4_HAL/stm32f4xx_ll_usart.o
                                                  build/uart.o
__any_on                                          d:/toolchain/gcc-arm-none-eabi/bin/../lib/gcc/arm-none-eabi/9.2.1/../../../../arm-none-eabi/lib/thumb/v7e-m+fp/hard\libc_nano.a(lib_a-mprec.o)
                                                  d:/toolchain/gcc-arm-none-eabi/bin/../lib/gcc/arm-none-eabi/9.2.1/../../../../arm-none-eabi/lib/thumb/v7e-m+fp/hard\libc_nano.a(lib_a-gdtoa-gethex.o)
__ascii_mbtowc                                    d:/toolchain/gcc-arm-none-eabi/bin/../lib/gcc/arm-none-eabi/9.2.1/../../../../arm-none-eabi/lib/thumb/v7e-m+fp/hard\libc_nano.a(lib_a-mbtowc_r.o)
                                                  d:/toolchain/gcc-arm-none-eabi/bin/../lib/gcc/arm-none-eabi/9.2.1/../../../../arm-none-eabi/lib/thumb/v7e-m+fp/hard\libc_nano.a(lib_a-locale.o)
__ascii_wctomb                                    d:/toolchain/gcc-arm-none-eabi/bin/../lib/gcc/arm-none-eabi/9.2.1/../../../../arm-none-eabi/lib/thumb/v7e-m+fp/hard\libc_nano.a(lib_a-wctomb_r.o)
                                                  d:/toolchain/gcc-arm-none-eabi/bin/../lib/gcc/arm-none-eabi/9.2.1/../../../../arm-none-eabi/lib/thumb/v7e-m+fp/hard\libc_nano.a(lib_a-locale.o)
__b2d                                             d:/toolchain/gcc-arm-none-eabi/bin/../lib/gcc/arm-none-eabi/9.2.1/../../../../arm-none-eabi/lib/thumb/v7e-m+fp/hard\libc_nano.a(lib_a-mprec.o)
__bss_end__                                       d:/toolchain/gcc-arm-none-eabi/bin/../lib/gcc/arm-none-eabi/9.2.1/../../../../arm-none-eabi/lib/thumb/v7e-m+fp/hard/crt0.o
__bss_start__                                     d:/toolchain/gcc-arm-none-eabi/bin/../lib/gcc/arm-none-eabi/9.2.1/../../../../arm-none-eabi/lib/thumb/v7e-m+fp/hard/crt0.o
__call_exitprocs                                  d:/toolchain/gcc-arm-none-eabi/bin/../lib/gcc/arm-none-eabi/9.2.1/../../../../arm-none-eabi/lib/thumb/v7e-m+fp/hard\libc_nano.a(lib_a-exit.o)
__cmpdf2                                          d:/toolchain/gcc-arm-none-eabi/bin/../lib/gcc/arm-none-eabi/9.2.1/thumb/v7e-m+fp/hard\libgcc.a(_arm_cmpdf2.o)
__copybits                                        d:/toolchain/gcc-arm-none-eabi/bin/../lib/gcc/arm-none-eabi/9.2.1/../../../../arm-none-eabi/lib/thumb/v7e-m+fp/hard\libc_nano.a(lib_a-mprec.o)
                                                  d:/toolchain/gcc-arm-none-eabi/bin/../lib/gcc/arm-none-eabi/9.2.1/../../../../arm-none-eabi/lib/thumb/v7e-m+fp/hard\libc_nano.a(lib_a-strtod.o)
__cvt                                             d:/toolchain/gcc-arm-none-eabi/bin/../lib/gcc/arm-none-eabi/9.2.1/../../../../arm-none-eabi/lib/thumb/v7e-m+fp/hard\libc_nano.a(lib_a-nano-vfprintf_float.o)
__d2b                                             d:/toolchain/gcc-arm-none-eabi/bin/../lib/gcc/arm-none-eabi/9.2.1/../../../../arm-none-eabi/lib/thumb/v7e-m+fp/hard\libc_nano.a(lib_a-mprec.o)
                                                  d:/toolchain/gcc-arm-none-eabi/bin/../lib/gcc/arm-none-eabi/9.2.1/../../../../arm-none-eabi/lib/thumb/v7e-m+fp/hard\libc_nano.a(lib_a-dtoa.o)
                                                  d:/toolchain/gcc-arm-none-eabi/bin/../lib/gcc/arm-none-eabi/9.2.1/../../../../arm-none-eabi/lib/thumb/v7e-m+fp/hard\libc_nano.a(lib_a-strtod.o)
__deregister_frame_info                           d:/toolchain/gcc-arm-none-eabi/bin/../lib/gcc/arm-none-eabi/9.2.1/thumb/v7e-m+fp/hard/crtbegin.o
__divdf3                                          d:/toolchain/gcc-arm-none-eabi/bin/../lib/gcc/arm-none-eabi/9.2.1/thumb/v7e-m+fp/hard\libgcc.a(_arm_muldivdf3.o)
__dso_handle                                      d:/toolchain/gcc-arm-none-eabi/bin/../lib/gcc/arm-none-eabi/9.2.1/thumb/v7e-m+fp/hard/crtbegin.o
__env_lock                                        build/FreeRTOS/heap_useNewlib.o
__env_unlock                                      build/FreeRTOS/heap_useNewlib.o
__eqdf2                                           d:/toolchain/gcc-arm-none-eabi/bin/../lib/gcc/arm-none-eabi/9.2.1/thumb/v7e-m+fp/hard\libgcc.a(_arm_cmpdf2.o)
__exponent                                        d:/toolchain/gcc-arm-none-eabi/bin/../lib/gcc/arm-none-eabi/9.2.1/../../../../arm-none-eabi/lib/thumb/v7e-m+fp/hard\libc_nano.a(lib_a-nano-vfprintf_float.o)
__extendsfdf2                                     d:/toolchain/gcc-arm-none-eabi/bin/../lib/gcc/arm-none-eabi/9.2.1/thumb/v7e-m+fp/hard\libgcc.a(_arm_addsubdf3.o)
__fixdfdi                                         d:/toolchain/gcc-arm-none-eabi/bin/../lib/gcc/arm-none-eabi/9.2.1/thumb/v7e-m+fp/hard\libgcc.a(_fixdfdi.o)
__fixdfsi                                         d:/toolchain/gcc-arm-none-eabi/bin/../lib/gcc/arm-none-eabi/9.2.1/thumb/v7e-m+fp/hard\libgcc.a(_arm_fixdfsi.o)
__fixunsdfdi                                      d:/toolchain/gcc-arm-none-eabi/bin/../lib/gcc/arm-none-eabi/9.2.1/thumb/v7e-m+fp/hard\libgcc.a(_fixunsdfdi.o)
__fixunsdfsi                                      d:/toolchain/gcc-arm-none-eabi/bin/../lib/gcc/arm-none-eabi/9.2.1/thumb/v7e-m+fp/hard\libgcc.a(_arm_fixunsdfsi.o)
__floatdidf                                       d:/toolchain/gcc-arm-none-eabi/bin/../lib/gcc/arm-none-eabi/9.2.1/thumb/v7e-m+fp/hard\libgcc.a(_arm_addsubdf3.o)
__floatsidf                                       d:/toolchain/gcc-arm-none-eabi/bin/../lib/gcc/arm-none-eabi/9.2.1/thumb/v7e-m+fp/hard\libgcc.a(_arm_addsubdf3.o)
__floatundidf                                     d:/toolchain/gcc-arm-none-eabi/bin/../lib/gcc/arm-none-eabi/9.2.1/thumb/v7e-m+fp/hard\libgcc.a(_arm_addsubdf3.o)
__floatunsidf                                     d:/toolchain/gcc-arm-none-eabi/bin/../lib/gcc/arm-none-eabi/9.2.1/thumb/v7e-m+fp/hard\libgcc.a(_arm_addsubdf3.o)
__fp_lock_all                                     d:/toolchain/gcc-arm-none-eabi/bin/../lib/gcc/arm-none-eabi/9.2.1/../../../../arm-none-eabi/lib/thumb/v7e-m+fp/hard\libc_nano.a(lib_a-findfp.o)
__fp_unlock_all                                   d:/toolchain/gcc-arm-none-eabi/bin/../lib/gcc/arm-none-eabi/9.2.1/../../../../arm-none-eabi/lib/thumb/v7e-m+fp/hard\libc_nano.a(lib_a-findfp.o)
__gedf2                                           d:/toolchain/gcc-arm-none-eabi/bin/../lib/gcc/arm-none-eabi/9.2.1/thumb/v7e-m+fp/hard\libgcc.a(_arm_cmpdf2.o)
__gethex                                          d:/toolchain/gcc-arm-none-eabi/bin/../lib/gcc/arm-none-eabi/9.2.1/../../../../arm-none-eabi/lib/thumb/v7e-m+fp/hard\libc_nano.a(lib_a-gdtoa-gethex.o)
                                                  d:/toolchain/gcc-arm-none-eabi/bin/../lib/gcc/arm-none-eabi/9.2.1/../../../../arm-none-eabi/lib/thumb/v7e-m+fp/hard\libc_nano.a(lib_a-strtod.o)
__global_locale                                   d:/toolchain/gcc-arm-none-eabi/bin/../lib/gcc/arm-none-eabi/9.2.1/../../../../arm-none-eabi/lib/thumb/v7e-m+fp/hard\libc_nano.a(lib_a-locale.o)
                                                  d:/toolchain/gcc-arm-none-eabi/bin/../lib/gcc/arm-none-eabi/9.2.1/../../../../arm-none-eabi/lib/thumb/v7e-m+fp/hard\libc_nano.a(lib_a-wctomb_r.o)
                                                  d:/toolchain/gcc-arm-none-eabi/bin/../lib/gcc/arm-none-eabi/9.2.1/../../../../arm-none-eabi/lib/thumb/v7e-m+fp/hard\libc_nano.a(lib_a-mbtowc_r.o)
                                                  d:/toolchain/gcc-arm-none-eabi/bin/../lib/gcc/arm-none-eabi/9.2.1/../../../../arm-none-eabi/lib/thumb/v7e-m+fp/hard\libc_nano.a(lib_a-localeconv.o)
                                                  d:/toolchain/gcc-arm-none-eabi/bin/../lib/gcc/arm-none-eabi/9.2.1/../../../../arm-none-eabi/lib/thumb/v7e-m+fp/hard\libc_nano.a(lib_a-strtod.o)
__gtdf2                                           d:/toolchain/gcc-arm-none-eabi/bin/../lib/gcc/arm-none-eabi/9.2.1/thumb/v7e-m+fp/hard\libgcc.a(_arm_cmpdf2.o)
__hexdig_fun                                      d:/toolchain/gcc-arm-none-eabi/bin/../lib/gcc/arm-none-eabi/9.2.1/../../../../arm-none-eabi/lib/thumb/v7e-m+fp/hard\libc_nano.a(lib_a-gdtoa-gethex.o)
                                                  d:/toolchain/gcc-arm-none-eabi/bin/../lib/gcc/arm-none-eabi/9.2.1/../../../../arm-none-eabi/lib/thumb/v7e-m+fp/hard\libc_nano.a(lib_a-gdtoa-hexnan.o)
__hexnan                                          d:/toolchain/gcc-arm-none-eabi/bin/../lib/gcc/arm-none-eabi/9.2.1/../../../../arm-none-eabi/lib/thumb/v7e-m+fp/hard\libc_nano.a(lib_a-gdtoa-hexnan.o)
                                                  d:/toolchain/gcc-arm-none-eabi/bin/../lib/gcc/arm-none-eabi/9.2.1/../../../../arm-none-eabi/lib/thumb/v7e-m+fp/hard\libc_nano.a(lib_a-strtod.o)
__hi0bits                                         d:/toolchain/gcc-arm-none-eabi/bin/../lib/gcc/arm-none-eabi/9.2.1/../../../../arm-none-eabi/lib/thumb/v7e-m+fp/hard\libc_nano.a(lib_a-mprec.o)
                                                  d:/toolchain/gcc-arm-none-eabi/bin/../lib/gcc/arm-none-eabi/9.2.1/../../../../arm-none-eabi/lib/thumb/v7e-m+fp/hard\libc_nano.a(lib_a-gdtoa-gethex.o)
                                                  d:/toolchain/gcc-arm-none-eabi/bin/../lib/gcc/arm-none-eabi/9.2.1/../../../../arm-none-eabi/lib/thumb/v7e-m+fp/hard\libc_nano.a(lib_a-dtoa.o)
__i2b                                             d:/toolchain/gcc-arm-none-eabi/bin/../lib/gcc/arm-none-eabi/9.2.1/../../../../arm-none-eabi/lib/thumb/v7e-m+fp/hard\libc_nano.a(lib_a-mprec.o)
                                                  d:/toolchain/gcc-arm-none-eabi/bin/../lib/gcc/arm-none-eabi/9.2.1/../../../../arm-none-eabi/lib/thumb/v7e-m+fp/hard\libc_nano.a(lib_a-dtoa.o)
                                                  d:/toolchain/gcc-arm-none-eabi/bin/../lib/gcc/arm-none-eabi/9.2.1/../../../../arm-none-eabi/lib/thumb/v7e-m+fp/hard\libc_nano.a(lib_a-strtod.o)
__init_array_end                                  d:/toolchain/gcc-arm-none-eabi/bin/../lib/gcc/arm-none-eabi/9.2.1/../../../../arm-none-eabi/lib/thumb/v7e-m+fp/hard\libc_nano.a(lib_a-init.o)
__init_array_start                                d:/toolchain/gcc-arm-none-eabi/bin/../lib/gcc/arm-none-eabi/9.2.1/../../../../arm-none-eabi/lib/thumb/v7e-m+fp/hard\libc_nano.a(lib_a-init.o)
__io_getchar                                      build/uart.o
__io_putchar                                      build/uart.o
__ledf2                                           d:/toolchain/gcc-arm-none-eabi/bin/../lib/gcc/arm-none-eabi/9.2.1/thumb/v7e-m+fp/hard\libgcc.a(_arm_cmpdf2.o)
__libc_fini_array                                 d:/toolchain/gcc-arm-none-eabi/bin/../lib/gcc/arm-none-eabi/9.2.1/../../../../arm-none-eabi/lib/thumb/v7e-m+fp/hard/crt0.o
__libc_init_array                                 d:/toolchain/gcc-arm-none-eabi/bin/../lib/gcc/arm-none-eabi/9.2.1/../../../../arm-none-eabi/lib/thumb/v7e-m+fp/hard\libc_nano.a(lib_a-init.o)
                                                  build/startup_stm32f446xx.o
                                                  d:/toolchain/gcc-arm-none-eabi/bin/../lib/gcc/arm-none-eabi/9.2.1/../../../../arm-none-eabi/lib/thumb/v7e-m+fp/hard/crt0.o
__lo0bits                                         d:/toolchain/gcc-arm-none-eabi/bin/../lib/gcc/arm-none-eabi/9.2.1/../../../../arm-none-eabi/lib/thumb/v7e-m+fp/hard\libc_nano.a(lib_a-mprec.o)
__locale_mb_cur_max                               d:/toolchain/gcc-arm-none-eabi/bin/../lib/gcc/arm-none-eabi/9.2.1/../../../../arm-none-eabi/lib/thumb/v7e-m+fp/hard\libc_nano.a(lib_a-locale.o)
__localeconv_l                                    d:/toolchain/gcc-arm-none-eabi/bin/../lib/gcc/arm-none-eabi/9.2.1/../../../../arm-none-eabi/lib/thumb/v7e-m+fp/hard\libc_nano.a(lib_a-localeconv.o)
__lock___arc4random_mutex                         d:/toolchain/gcc-arm-none-eabi/bin/../lib/gcc/arm-none-eabi/9.2.1/../../../../arm-none-eabi/lib/thumb/v7e-m+fp/hard\libc_nano.a(lib_a-lock.o)
__lock___at_quick_exit_mutex                      d:/toolchain/gcc-arm-none-eabi/bin/../lib/gcc/arm-none-eabi/9.2.1/../../../../arm-none-eabi/lib/thumb/v7e-m+fp/hard\libc_nano.a(lib_a-lock.o)
__lock___atexit_recursive_mutex                   d:/toolchain/gcc-arm-none-eabi/bin/../lib/gcc/arm-none-eabi/9.2.1/../../../../arm-none-eabi/lib/thumb/v7e-m+fp/hard\libc_nano.a(lib_a-lock.o)
__lock___dd_hash_mutex                            d:/toolchain/gcc-arm-none-eabi/bin/../lib/gcc/arm-none-eabi/9.2.1/../../../../arm-none-eabi/lib/thumb/v7e-m+fp/hard\libc_nano.a(lib_a-lock.o)
__lock___env_recursive_mutex                      d:/toolchain/gcc-arm-none-eabi/bin/../lib/gcc/arm-none-eabi/9.2.1/../../../../arm-none-eabi/lib/thumb/v7e-m+fp/hard\libc_nano.a(lib_a-lock.o)
__lock___malloc_recursive_mutex                   d:/toolchain/gcc-arm-none-eabi/bin/../lib/gcc/arm-none-eabi/9.2.1/../../../../arm-none-eabi/lib/thumb/v7e-m+fp/hard\libc_nano.a(lib_a-lock.o)
__lock___sfp_recursive_mutex                      d:/toolchain/gcc-arm-none-eabi/bin/../lib/gcc/arm-none-eabi/9.2.1/../../../../arm-none-eabi/lib/thumb/v7e-m+fp/hard\libc_nano.a(lib_a-lock.o)
                                                  d:/toolchain/gcc-arm-none-eabi/bin/../lib/gcc/arm-none-eabi/9.2.1/../../../../arm-none-eabi/lib/thumb/v7e-m+fp/hard\libc_nano.a(lib_a-findfp.o)
__lock___sinit_recursive_mutex                    d:/toolchain/gcc-arm-none-eabi/bin/../lib/gcc/arm-none-eabi/9.2.1/../../../../arm-none-eabi/lib/thumb/v7e-m+fp/hard\libc_nano.a(lib_a-lock.o)
                                                  d:/toolchain/gcc-arm-none-eabi/bin/../lib/gcc/arm-none-eabi/9.2.1/../../../../arm-none-eabi/lib/thumb/v7e-m+fp/hard\libc_nano.a(lib_a-findfp.o)
__lock___tz_mutex                                 d:/toolchain/gcc-arm-none-eabi/bin/../lib/gcc/arm-none-eabi/9.2.1/../../../../arm-none-eabi/lib/thumb/v7e-m+fp/hard\libc_nano.a(lib_a-lock.o)
__lshift                                          d:/toolchain/gcc-arm-none-eabi/bin/../lib/gcc/arm-none-eabi/9.2.1/../../../../arm-none-eabi/lib/thumb/v7e-m+fp/hard\libc_nano.a(lib_a-mprec.o)
                                                  d:/toolchain/gcc-arm-none-eabi/bin/../lib/gcc/arm-none-eabi/9.2.1/../../../../arm-none-eabi/lib/thumb/v7e-m+fp/hard\libc_nano.a(lib_a-gdtoa-gethex.o)
                                                  d:/toolchain/gcc-arm-none-eabi/bin/../lib/gcc/arm-none-eabi/9.2.1/../../../../arm-none-eabi/lib/thumb/v7e-m+fp/hard\libc_nano.a(lib_a-dtoa.o)
                                                  d:/toolchain/gcc-arm-none-eabi/bin/../lib/gcc/arm-none-eabi/9.2.1/../../../../arm-none-eabi/lib/thumb/v7e-m+fp/hard\libc_nano.a(lib_a-strtod.o)
__ltdf2                                           d:/toolchain/gcc-arm-none-eabi/bin/../lib/gcc/arm-none-eabi/9.2.1/thumb/v7e-m+fp/hard\libgcc.a(_arm_cmpdf2.o)
__malloc_current_mallinfo                         d:/toolchain/gcc-arm-none-eabi/bin/../lib/gcc/arm-none-eabi/9.2.1/../../../../arm-none-eabi/lib/thumb/v7e-m+fp/hard\libc_nano.a(lib_a-nano-mallinfor.o)
                                                  d:/toolchain/gcc-arm-none-eabi/bin/../lib/gcc/arm-none-eabi/9.2.1/../../../../arm-none-eabi/lib/thumb/v7e-m+fp/hard\libc_nano.a(lib_a-nano-mallstatsr.o)
__malloc_free_list                                d:/toolchain/gcc-arm-none-eabi/bin/../lib/gcc/arm-none-eabi/9.2.1/../../../../arm-none-eabi/lib/thumb/v7e-m+fp/hard\libc_nano.a(lib_a-nano-mallocr.o)
                                                  d:/toolchain/gcc-arm-none-eabi/bin/../lib/gcc/arm-none-eabi/9.2.1/../../../../arm-none-eabi/lib/thumb/v7e-m+fp/hard\libc_nano.a(lib_a-nano-mallinfor.o)
                                                  d:/toolchain/gcc-arm-none-eabi/bin/../lib/gcc/arm-none-eabi/9.2.1/../../../../arm-none-eabi/lib/thumb/v7e-m+fp/hard\libc_nano.a(lib_a-nano-freer.o)
__malloc_lock                                     build/FreeRTOS/heap_useNewlib.o
                                                  d:/toolchain/gcc-arm-none-eabi/bin/../lib/gcc/arm-none-eabi/9.2.1/../../../../arm-none-eabi/lib/thumb/v7e-m+fp/hard\libc_nano.a(lib_a-nano-mallocr.o)
                                                  d:/toolchain/gcc-arm-none-eabi/bin/../lib/gcc/arm-none-eabi/9.2.1/../../../../arm-none-eabi/lib/thumb/v7e-m+fp/hard\libc_nano.a(lib_a-nano-mallinfor.o)
                                                  d:/toolchain/gcc-arm-none-eabi/bin/../lib/gcc/arm-none-eabi/9.2.1/../../../../arm-none-eabi/lib/thumb/v7e-m+fp/hard\libc_nano.a(lib_a-nano-freer.o)
__malloc_sbrk_start                               d:/toolchain/gcc-arm-none-eabi/bin/../lib/gcc/arm-none-eabi/9.2.1/../../../../arm-none-eabi/lib/thumb/v7e-m+fp/hard\libc_nano.a(lib_a-nano-mallocr.o)
                                                  d:/toolchain/gcc-arm-none-eabi/bin/../lib/gcc/arm-none-eabi/9.2.1/../../../../arm-none-eabi/lib/thumb/v7e-m+fp/hard\libc_nano.a(lib_a-nano-mallinfor.o)
__malloc_unlock                                   build/FreeRTOS/heap_useNewlib.o
                                                  d:/toolchain/gcc-arm-none-eabi/bin/../lib/gcc/arm-none-eabi/9.2.1/../../../../arm-none-eabi/lib/thumb/v7e-m+fp/hard\libc_nano.a(lib_a-nano-mallocr.o)
                                                  d:/toolchain/gcc-arm-none-eabi/bin/../lib/gcc/arm-none-eabi/9.2.1/../../../../arm-none-eabi/lib/thumb/v7e-m+fp/hard\libc_nano.a(lib_a-nano-mallinfor.o)
                                                  d:/toolchain/gcc-arm-none-eabi/bin/../lib/gcc/arm-none-eabi/9.2.1/../../../../arm-none-eabi/lib/thumb/v7e-m+fp/hard\libc_nano.a(lib_a-nano-freer.o)
__match                                           d:/toolchain/gcc-arm-none-eabi/bin/../lib/gcc/arm-none-eabi/9.2.1/../../../../arm-none-eabi/lib/thumb/v7e-m+fp/hard\libc_nano.a(lib_a-gdtoa-hexnan.o)
                                                  d:/toolchain/gcc-arm-none-eabi/bin/../lib/gcc/arm-none-eabi/9.2.1/../../../../arm-none-eabi/lib/thumb/v7e-m+fp/hard\libc_nano.a(lib_a-strtod.o)
__mcmp                                            d:/toolchain/gcc-arm-none-eabi/bin/../lib/gcc/arm-none-eabi/9.2.1/../../../../arm-none-eabi/lib/thumb/v7e-m+fp/hard\libc_nano.a(lib_a-mprec.o)
                                                  d:/toolchain/gcc-arm-none-eabi/bin/../lib/gcc/arm-none-eabi/9.2.1/../../../../arm-none-eabi/lib/thumb/v7e-m+fp/hard\libc_nano.a(lib_a-dtoa.o)
                                                  d:/toolchain/gcc-arm-none-eabi/bin/../lib/gcc/arm-none-eabi/9.2.1/../../../../arm-none-eabi/lib/thumb/v7e-m+fp/hard\libc_nano.a(lib_a-strtod.o)
__mdiff                                           d:/toolchain/gcc-arm-none-eabi/bin/../lib/gcc/arm-none-eabi/9.2.1/../../../../arm-none-eabi/lib/thumb/v7e-m+fp/hard\libc_nano.a(lib_a-mprec.o)
                                                  d:/toolchain/gcc-arm-none-eabi/bin/../lib/gcc/arm-none-eabi/9.2.1/../../../../arm-none-eabi/lib/thumb/v7e-m+fp/hard\libc_nano.a(lib_a-dtoa.o)
                                                  d:/toolchain/gcc-arm-none-eabi/bin/../lib/gcc/arm-none-eabi/9.2.1/../../../../arm-none-eabi/lib/thumb/v7e-m+fp/hard\libc_nano.a(lib_a-strtod.o)
__mprec_bigtens                                   d:/toolchain/gcc-arm-none-eabi/bin/../lib/gcc/arm-none-eabi/9.2.1/../../../../arm-none-eabi/lib/thumb/v7e-m+fp/hard\libc_nano.a(lib_a-mprec.o)
                                                  d:/toolchain/gcc-arm-none-eabi/bin/../lib/gcc/arm-none-eabi/9.2.1/../../../../arm-none-eabi/lib/thumb/v7e-m+fp/hard\libc_nano.a(lib_a-dtoa.o)
                                                  d:/toolchain/gcc-arm-none-eabi/bin/../lib/gcc/arm-none-eabi/9.2.1/../../../../arm-none-eabi/lib/thumb/v7e-m+fp/hard\libc_nano.a(lib_a-strtod.o)
__mprec_tens                                      d:/toolchain/gcc-arm-none-eabi/bin/../lib/gcc/arm-none-eabi/9.2.1/../../../../arm-none-eabi/lib/thumb/v7e-m+fp/hard\libc_nano.a(lib_a-mprec.o)
                                                  d:/toolchain/gcc-arm-none-eabi/bin/../lib/gcc/arm-none-eabi/9.2.1/../../../../arm-none-eabi/lib/thumb/v7e-m+fp/hard\libc_nano.a(lib_a-dtoa.o)
                                                  d:/toolchain/gcc-arm-none-eabi/bin/../lib/gcc/arm-none-eabi/9.2.1/../../../../arm-none-eabi/lib/thumb/v7e-m+fp/hard\libc_nano.a(lib_a-strtod.o)
__mprec_tinytens                                  d:/toolchain/gcc-arm-none-eabi/bin/../lib/gcc/arm-none-eabi/9.2.1/../../../../arm-none-eabi/lib/thumb/v7e-m+fp/hard\libc_nano.a(lib_a-mprec.o)
__muldf3                                          d:/toolchain/gcc-arm-none-eabi/bin/../lib/gcc/arm-none-eabi/9.2.1/thumb/v7e-m+fp/hard\libgcc.a(_arm_muldivdf3.o)
                                                  d:/toolchain/gcc-arm-none-eabi/bin/../lib/gcc/arm-none-eabi/9.2.1/thumb/v7e-m+fp/hard\libgcc.a(_arm_muldf3.o)
__multadd                                         d:/toolchain/gcc-arm-none-eabi/bin/../lib/gcc/arm-none-eabi/9.2.1/../../../../arm-none-eabi/lib/thumb/v7e-m+fp/hard\libc_nano.a(lib_a-mprec.o)
                                                  d:/toolchain/gcc-arm-none-eabi/bin/../lib/gcc/arm-none-eabi/9.2.1/../../../../arm-none-eabi/lib/thumb/v7e-m+fp/hard\libc_nano.a(lib_a-dtoa.o)
__multiply                                        d:/toolchain/gcc-arm-none-eabi/bin/../lib/gcc/arm-none-eabi/9.2.1/../../../../arm-none-eabi/lib/thumb/v7e-m+fp/hard\libc_nano.a(lib_a-mprec.o)
                                                  d:/toolchain/gcc-arm-none-eabi/bin/../lib/gcc/arm-none-eabi/9.2.1/../../../../arm-none-eabi/lib/thumb/v7e-m+fp/hard\libc_nano.a(lib_a-dtoa.o)
                                                  d:/toolchain/gcc-arm-none-eabi/bin/../lib/gcc/arm-none-eabi/9.2.1/../../../../arm-none-eabi/lib/thumb/v7e-m+fp/hard\libc_nano.a(lib_a-strtod.o)
__nedf2                                           d:/toolchain/gcc-arm-none-eabi/bin/../lib/gcc/arm-none-eabi/9.2.1/thumb/v7e-m+fp/hard\libgcc.a(_arm_cmpdf2.o)
__numeric_load_locale                             d:/toolchain/gcc-arm-none-eabi/bin/../lib/gcc/arm-none-eabi/9.2.1/../../../../arm-none-eabi/lib/thumb/v7e-m+fp/hard\libc_nano.a(lib_a-lnumeric.o)
__pow5mult                                        d:/toolchain/gcc-arm-none-eabi/bin/../lib/gcc/arm-none-eabi/9.2.1/../../../../arm-none-eabi/lib/thumb/v7e-m+fp/hard\libc_nano.a(lib_a-mprec.o)
                                                  d:/toolchain/gcc-arm-none-eabi/bin/../lib/gcc/arm-none-eabi/9.2.1/../../../../arm-none-eabi/lib/thumb/v7e-m+fp/hard\libc_nano.a(lib_a-dtoa.o)
                                                  d:/toolchain/gcc-arm-none-eabi/bin/../lib/gcc/arm-none-eabi/9.2.1/../../../../arm-none-eabi/lib/thumb/v7e-m+fp/hard\libc_nano.a(lib_a-strtod.o)
__preinit_array_end                               d:/toolchain/gcc-arm-none-eabi/bin/../lib/gcc/arm-none-eabi/9.2.1/../../../../arm-none-eabi/lib/thumb/v7e-m+fp/hard\libc_nano.a(lib_a-init.o)
__preinit_array_start                             d:/toolchain/gcc-arm-none-eabi/bin/../lib/gcc/arm-none-eabi/9.2.1/../../../../arm-none-eabi/lib/thumb/v7e-m+fp/hard\libc_nano.a(lib_a-init.o)
__ratio                                           d:/toolchain/gcc-arm-none-eabi/bin/../lib/gcc/arm-none-eabi/9.2.1/../../../../arm-none-eabi/lib/thumb/v7e-m+fp/hard\libc_nano.a(lib_a-mprec.o)
                                                  d:/toolchain/gcc-arm-none-eabi/bin/../lib/gcc/arm-none-eabi/9.2.1/../../../../arm-none-eabi/lib/thumb/v7e-m+fp/hard\libc_nano.a(lib_a-strtod.o)
__register_frame_info                             d:/toolchain/gcc-arm-none-eabi/bin/../lib/gcc/arm-none-eabi/9.2.1/thumb/v7e-m+fp/hard/crtbegin.o
__retarget_lock_acquire                           d:/toolchain/gcc-arm-none-eabi/bin/../lib/gcc/arm-none-eabi/9.2.1/../../../../arm-none-eabi/lib/thumb/v7e-m+fp/hard\libc_nano.a(lib_a-lock.o)
__retarget_lock_acquire_recursive                 d:/toolchain/gcc-arm-none-eabi/bin/../lib/gcc/arm-none-eabi/9.2.1/../../../../arm-none-eabi/lib/thumb/v7e-m+fp/hard\libc_nano.a(lib_a-lock.o)
                                                  d:/toolchain/gcc-arm-none-eabi/bin/../lib/gcc/arm-none-eabi/9.2.1/../../../../arm-none-eabi/lib/thumb/v7e-m+fp/hard\libc_nano.a(lib_a-nano-vfprintf.o)
                                                  d:/toolchain/gcc-arm-none-eabi/bin/../lib/gcc/arm-none-eabi/9.2.1/../../../../arm-none-eabi/lib/thumb/v7e-m+fp/hard\libc_nano.a(lib_a-getc.o)
                                                  d:/toolchain/gcc-arm-none-eabi/bin/../lib/gcc/arm-none-eabi/9.2.1/../../../../arm-none-eabi/lib/thumb/v7e-m+fp/hard\libc_nano.a(lib_a-findfp.o)
                                                  d:/toolchain/gcc-arm-none-eabi/bin/../lib/gcc/arm-none-eabi/9.2.1/../../../../arm-none-eabi/lib/thumb/v7e-m+fp/hard\libc_nano.a(lib_a-fflush.o)
                                                  d:/toolchain/gcc-arm-none-eabi/bin/../lib/gcc/arm-none-eabi/9.2.1/../../../../arm-none-eabi/lib/thumb/v7e-m+fp/hard\libc_nano.a(lib_a-setvbuf.o)
__retarget_lock_close                             d:/toolchain/gcc-arm-none-eabi/bin/../lib/gcc/arm-none-eabi/9.2.1/../../../../arm-none-eabi/lib/thumb/v7e-m+fp/hard\libc_nano.a(lib_a-lock.o)
__retarget_lock_close_recursive                   d:/toolchain/gcc-arm-none-eabi/bin/../lib/gcc/arm-none-eabi/9.2.1/../../../../arm-none-eabi/lib/thumb/v7e-m+fp/hard\libc_nano.a(lib_a-lock.o)
__retarget_lock_init                              d:/toolchain/gcc-arm-none-eabi/bin/../lib/gcc/arm-none-eabi/9.2.1/../../../../arm-none-eabi/lib/thumb/v7e-m+fp/hard\libc_nano.a(lib_a-lock.o)
__retarget_lock_init_recursive                    d:/toolchain/gcc-arm-none-eabi/bin/../lib/gcc/arm-none-eabi/9.2.1/../../../../arm-none-eabi/lib/thumb/v7e-m+fp/hard\libc_nano.a(lib_a-lock.o)
                                                  d:/toolchain/gcc-arm-none-eabi/bin/../lib/gcc/arm-none-eabi/9.2.1/../../../../arm-none-eabi/lib/thumb/v7e-m+fp/hard\libc_nano.a(lib_a-findfp.o)
__retarget_lock_release                           d:/toolchain/gcc-arm-none-eabi/bin/../lib/gcc/arm-none-eabi/9.2.1/../../../../arm-none-eabi/lib/thumb/v7e-m+fp/hard\libc_nano.a(lib_a-lock.o)
__retarget_lock_release_recursive                 d:/toolchain/gcc-arm-none-eabi/bin/../lib/gcc/arm-none-eabi/9.2.1/../../../../arm-none-eabi/lib/thumb/v7e-m+fp/hard\libc_nano.a(lib_a-lock.o)
                                                  d:/toolchain/gcc-arm-none-eabi/bin/../lib/gcc/arm-none-eabi/9.2.1/../../../../arm-none-eabi/lib/thumb/v7e-m+fp/hard\libc_nano.a(lib_a-nano-vfprintf.o)
                                                  d:/toolchain/gcc-arm-none-eabi/bin/../lib/gcc/arm-none-eabi/9.2.1/../../../../arm-none-eabi/lib/thumb/v7e-m+fp/hard\libc_nano.a(lib_a-getc.o)
                                                  d:/toolchain/gcc-arm-none-eabi/bin/../lib/gcc/arm-none-eabi/9.2.1/../../../../arm-none-eabi/lib/thumb/v7e-m+fp/hard\libc_nano.a(lib_a-findfp.o)
                                                  d:/toolchain/gcc-arm-none-eabi/bin/../lib/gcc/arm-none-eabi/9.2.1/../../../../arm-none-eabi/lib/thumb/v7e-m+fp/hard\libc_nano.a(lib_a-fflush.o)
                                                  d:/toolchain/gcc-arm-none-eabi/bin/../lib/gcc/arm-none-eabi/9.2.1/../../../../arm-none-eabi/lib/thumb/v7e-m+fp/hard\libc_nano.a(lib_a-setvbuf.o)
__retarget_lock_try_acquire                       d:/toolchain/gcc-arm-none-eabi/bin/../lib/gcc/arm-none-eabi/9.2.1/../../../../arm-none-eabi/lib/thumb/v7e-m+fp/hard\libc_nano.a(lib_a-lock.o)
__retarget_lock_try_acquire_recursive             d:/toolchain/gcc-arm-none-eabi/bin/../lib/gcc/arm-none-eabi/9.2.1/../../../../arm-none-eabi/lib/thumb/v7e-m+fp/hard\libc_nano.a(lib_a-lock.o)
__s2b                                             d:/toolchain/gcc-arm-none-eabi/bin/../lib/gcc/arm-none-eabi/9.2.1/../../../../arm-none-eabi/lib/thumb/v7e-m+fp/hard\libc_nano.a(lib_a-mprec.o)
                                                  d:/toolchain/gcc-arm-none-eabi/bin/../lib/gcc/arm-none-eabi/9.2.1/../../../../arm-none-eabi/lib/thumb/v7e-m+fp/hard\libc_nano.a(lib_a-strtod.o)
__sclose                                          d:/toolchain/gcc-arm-none-eabi/bin/../lib/gcc/arm-none-eabi/9.2.1/../../../../arm-none-eabi/lib/thumb/v7e-m+fp/hard\libc_nano.a(lib_a-stdio.o)
                                                  d:/toolchain/gcc-arm-none-eabi/bin/../lib/gcc/arm-none-eabi/9.2.1/../../../../arm-none-eabi/lib/thumb/v7e-m+fp/hard\libc_nano.a(lib_a-findfp.o)
__seofread                                        d:/toolchain/gcc-arm-none-eabi/bin/../lib/gcc/arm-none-eabi/9.2.1/../../../../arm-none-eabi/lib/thumb/v7e-m+fp/hard\libc_nano.a(lib_a-stdio.o)
__sf_fake_stderr                                  d:/toolchain/gcc-arm-none-eabi/bin/../lib/gcc/arm-none-eabi/9.2.1/../../../../arm-none-eabi/lib/thumb/v7e-m+fp/hard\libc_nano.a(lib_a-findfp.o)
                                                  d:/toolchain/gcc-arm-none-eabi/bin/../lib/gcc/arm-none-eabi/9.2.1/../../../../arm-none-eabi/lib/thumb/v7e-m+fp/hard\libc_nano.a(lib_a-refill.o)
                                                  d:/toolchain/gcc-arm-none-eabi/bin/../lib/gcc/arm-none-eabi/9.2.1/../../../../arm-none-eabi/lib/thumb/v7e-m+fp/hard\libc_nano.a(lib_a-wsetup.o)
                                                  d:/toolchain/gcc-arm-none-eabi/bin/../lib/gcc/arm-none-eabi/9.2.1/../../../../arm-none-eabi/lib/thumb/v7e-m+fp/hard\libc_nano.a(lib_a-wbuf.o)
                                                  d:/toolchain/gcc-arm-none-eabi/bin/../lib/gcc/arm-none-eabi/9.2.1/../../../../arm-none-eabi/lib/thumb/v7e-m+fp/hard\libc_nano.a(lib_a-rget.o)
                                                  d:/toolchain/gcc-arm-none-eabi/bin/../lib/gcc/arm-none-eabi/9.2.1/../../../../arm-none-eabi/lib/thumb/v7e-m+fp/hard\libc_nano.a(lib_a-nano-vfprintf.o)
                                                  d:/toolchain/gcc-arm-none-eabi/bin/../lib/gcc/arm-none-eabi/9.2.1/../../../../arm-none-eabi/lib/thumb/v7e-m+fp/hard\libc_nano.a(lib_a-getc.o)
                                                  d:/toolchain/gcc-arm-none-eabi/bin/../lib/gcc/arm-none-eabi/9.2.1/../../../../arm-none-eabi/lib/thumb/v7e-m+fp/hard\libc_nano.a(lib_a-fflush.o)
                                                  d:/toolchain/gcc-arm-none-eabi/bin/../lib/gcc/arm-none-eabi/9.2.1/../../../../arm-none-eabi/lib/thumb/v7e-m+fp/hard\libc_nano.a(lib_a-setvbuf.o)
                                                  d:/toolchain/gcc-arm-none-eabi/bin/../lib/gcc/arm-none-eabi/9.2.1/../../../../arm-none-eabi/lib/thumb/v7e-m+fp/hard\libc_nano.a(lib_a-impure.o)
__sf_fake_stdin                                   d:/toolchain/gcc-arm-none-eabi/bin/../lib/gcc/arm-none-eabi/9.2.1/../../../../arm-none-eabi/lib/thumb/v7e-m+fp/hard\libc_nano.a(lib_a-findfp.o)
                                                  d:/toolchain/gcc-arm-none-eabi/bin/../lib/gcc/arm-none-eabi/9.2.1/../../../../arm-none-eabi/lib/thumb/v7e-m+fp/hard\libc_nano.a(lib_a-refill.o)
                                                  d:/toolchain/gcc-arm-none-eabi/bin/../lib/gcc/arm-none-eabi/9.2.1/../../../../arm-none-eabi/lib/thumb/v7e-m+fp/hard\libc_nano.a(lib_a-wsetup.o)
                                                  d:/toolchain/gcc-arm-none-eabi/bin/../lib/gcc/arm-none-eabi/9.2.1/../../../../arm-none-eabi/lib/thumb/v7e-m+fp/hard\libc_nano.a(lib_a-wbuf.o)
                                                  d:/toolchain/gcc-arm-none-eabi/bin/../lib/gcc/arm-none-eabi/9.2.1/../../../../arm-none-eabi/lib/thumb/v7e-m+fp/hard\libc_nano.a(lib_a-rget.o)
                                                  d:/toolchain/gcc-arm-none-eabi/bin/../lib/gcc/arm-none-eabi/9.2.1/../../../../arm-none-eabi/lib/thumb/v7e-m+fp/hard\libc_nano.a(lib_a-nano-vfprintf.o)
                                                  d:/toolchain/gcc-arm-none-eabi/bin/../lib/gcc/arm-none-eabi/9.2.1/../../../../arm-none-eabi/lib/thumb/v7e-m+fp/hard\libc_nano.a(lib_a-getc.o)
                                                  d:/toolchain/gcc-arm-none-eabi/bin/../lib/gcc/arm-none-eabi/9.2.1/../../../../arm-none-eabi/lib/thumb/v7e-m+fp/hard\libc_nano.a(lib_a-fflush.o)
                                                  d:/toolchain/gcc-arm-none-eabi/bin/../lib/gcc/arm-none-eabi/9.2.1/../../../../arm-none-eabi/lib/thumb/v7e-m+fp/hard\libc_nano.a(lib_a-setvbuf.o)
                                                  d:/toolchain/gcc-arm-none-eabi/bin/../lib/gcc/arm-none-eabi/9.2.1/../../../../arm-none-eabi/lib/thumb/v7e-m+fp/hard\libc_nano.a(lib_a-impure.o)
__sf_fake_stdout                                  d:/toolchain/gcc-arm-none-eabi/bin/../lib/gcc/arm-none-eabi/9.2.1/../../../../arm-none-eabi/lib/thumb/v7e-m+fp/hard\libc_nano.a(lib_a-findfp.o)
                                                  d:/toolchain/gcc-arm-none-eabi/bin/../lib/gcc/arm-none-eabi/9.2.1/../../../../arm-none-eabi/lib/thumb/v7e-m+fp/hard\libc_nano.a(lib_a-refill.o)
                                                  d:/toolchain/gcc-arm-none-eabi/bin/../lib/gcc/arm-none-eabi/9.2.1/../../../../arm-none-eabi/lib/thumb/v7e-m+fp/hard\libc_nano.a(lib_a-wsetup.o)
                                                  d:/toolchain/gcc-arm-none-eabi/bin/../lib/gcc/arm-none-eabi/9.2.1/../../../../arm-none-eabi/lib/thumb/v7e-m+fp/hard\libc_nano.a(lib_a-wbuf.o)
                                                  d:/toolchain/gcc-arm-none-eabi/bin/../lib/gcc/arm-none-eabi/9.2.1/../../../../arm-none-eabi/lib/thumb/v7e-m+fp/hard\libc_nano.a(lib_a-rget.o)
                                                  d:/toolchain/gcc-arm-none-eabi/bin/../lib/gcc/arm-none-eabi/9.2.1/../../../../arm-none-eabi/lib/thumb/v7e-m+fp/hard\libc_nano.a(lib_a-nano-vfprintf.o)
                                                  d:/toolchain/gcc-arm-none-eabi/bin/../lib/gcc/arm-none-eabi/9.2.1/../../../../arm-none-eabi/lib/thumb/v7e-m+fp/hard\libc_nano.a(lib_a-getc.o)
                                                  d:/toolchain/gcc-arm-none-eabi/bin/../lib/gcc/arm-none-eabi/9.2.1/../../../../arm-none-eabi/lib/thumb/v7e-m+fp/hard\libc_nano.a(lib_a-fflush.o)
                                                  d:/toolchain/gcc-arm-none-eabi/bin/../lib/gcc/arm-none-eabi/9.2.1/../../../../arm-none-eabi/lib/thumb/v7e-m+fp/hard\libc_nano.a(lib_a-setvbuf.o)
                                                  d:/toolchain/gcc-arm-none-eabi/bin/../lib/gcc/arm-none-eabi/9.2.1/../../../../arm-none-eabi/lib/thumb/v7e-m+fp/hard\libc_nano.a(lib_a-impure.o)
__sflush_r                                        d:/toolchain/gcc-arm-none-eabi/bin/../lib/gcc/arm-none-eabi/9.2.1/../../../../arm-none-eabi/lib/thumb/v7e-m+fp/hard\libc_nano.a(lib_a-fflush.o)
                                                  d:/toolchain/gcc-arm-none-eabi/bin/../lib/gcc/arm-none-eabi/9.2.1/../../../../arm-none-eabi/lib/thumb/v7e-m+fp/hard\libc_nano.a(lib_a-refill.o)
__sfmoreglue                                      d:/toolchain/gcc-arm-none-eabi/bin/../lib/gcc/arm-none-eabi/9.2.1/../../../../arm-none-eabi/lib/thumb/v7e-m+fp/hard\libc_nano.a(lib_a-findfp.o)
__sfp                                             d:/toolchain/gcc-arm-none-eabi/bin/../lib/gcc/arm-none-eabi/9.2.1/../../../../arm-none-eabi/lib/thumb/v7e-m+fp/hard\libc_nano.a(lib_a-findfp.o)
__sfp_lock_acquire                                d:/toolchain/gcc-arm-none-eabi/bin/../lib/gcc/arm-none-eabi/9.2.1/../../../../arm-none-eabi/lib/thumb/v7e-m+fp/hard\libc_nano.a(lib_a-findfp.o)
__sfp_lock_release                                d:/toolchain/gcc-arm-none-eabi/bin/../lib/gcc/arm-none-eabi/9.2.1/../../../../arm-none-eabi/lib/thumb/v7e-m+fp/hard\libc_nano.a(lib_a-findfp.o)
__sfputs_r                                        d:/toolchain/gcc-arm-none-eabi/bin/../lib/gcc/arm-none-eabi/9.2.1/../../../../arm-none-eabi/lib/thumb/v7e-m+fp/hard\libc_nano.a(lib_a-nano-vfprintf.o)
__sfvwrite_r                                      d:/toolchain/gcc-arm-none-eabi/bin/../lib/gcc/arm-none-eabi/9.2.1/../../../../arm-none-eabi/lib/thumb/v7e-m+fp/hard\libc_nano.a(lib_a-fvwrite.o)
                                                  d:/toolchain/gcc-arm-none-eabi/bin/../lib/gcc/arm-none-eabi/9.2.1/../../../../arm-none-eabi/lib/thumb/v7e-m+fp/hard\libc_nano.a(lib_a-nano-vfprintf.o)
__sinit                                           d:/toolchain/gcc-arm-none-eabi/bin/../lib/gcc/arm-none-eabi/9.2.1/../../../../arm-none-eabi/lib/thumb/v7e-m+fp/hard\libc_nano.a(lib_a-findfp.o)
                                                  d:/toolchain/gcc-arm-none-eabi/bin/../lib/gcc/arm-none-eabi/9.2.1/../../../../arm-none-eabi/lib/thumb/v7e-m+fp/hard\libc_nano.a(lib_a-refill.o)
                                                  d:/toolchain/gcc-arm-none-eabi/bin/../lib/gcc/arm-none-eabi/9.2.1/../../../../arm-none-eabi/lib/thumb/v7e-m+fp/hard\libc_nano.a(lib_a-wsetup.o)
                                                  d:/toolchain/gcc-arm-none-eabi/bin/../lib/gcc/arm-none-eabi/9.2.1/../../../../arm-none-eabi/lib/thumb/v7e-m+fp/hard\libc_nano.a(lib_a-wbuf.o)
                                                  d:/toolchain/gcc-arm-none-eabi/bin/../lib/gcc/arm-none-eabi/9.2.1/../../../../arm-none-eabi/lib/thumb/v7e-m+fp/hard\libc_nano.a(lib_a-rget.o)
                                                  d:/toolchain/gcc-arm-none-eabi/bin/../lib/gcc/arm-none-eabi/9.2.1/../../../../arm-none-eabi/lib/thumb/v7e-m+fp/hard\libc_nano.a(lib_a-nano-vfprintf.o)
                                                  d:/toolchain/gcc-arm-none-eabi/bin/../lib/gcc/arm-none-eabi/9.2.1/../../../../arm-none-eabi/lib/thumb/v7e-m+fp/hard\libc_nano.a(lib_a-getc.o)
                                                  d:/toolchain/gcc-arm-none-eabi/bin/../lib/gcc/arm-none-eabi/9.2.1/../../../../arm-none-eabi/lib/thumb/v7e-m+fp/hard\libc_nano.a(lib_a-fflush.o)
                                                  d:/toolchain/gcc-arm-none-eabi/bin/../lib/gcc/arm-none-eabi/9.2.1/../../../../arm-none-eabi/lib/thumb/v7e-m+fp/hard\libc_nano.a(lib_a-vprintf.o)
                                                  d:/toolchain/gcc-arm-none-eabi/bin/../lib/gcc/arm-none-eabi/9.2.1/../../../../arm-none-eabi/lib/thumb/v7e-m+fp/hard\libc_nano.a(lib_a-setvbuf.o)
                                                  d:/toolchain/gcc-arm-none-eabi/bin/../lib/gcc/arm-none-eabi/9.2.1/../../../../arm-none-eabi/lib/thumb/v7e-m+fp/hard\libc_nano.a(lib_a-printf.o)
                                                  d:/toolchain/gcc-arm-none-eabi/bin/../lib/gcc/arm-none-eabi/9.2.1/../../../../arm-none-eabi/lib/thumb/v7e-m+fp/hard\libc_nano.a(lib_a-mstats.o)
                                                  d:/toolchain/gcc-arm-none-eabi/bin/../lib/gcc/arm-none-eabi/9.2.1/../../../../arm-none-eabi/lib/thumb/v7e-m+fp/hard\libc_nano.a(lib_a-getchar.o)
__sinit_lock_acquire                              d:/toolchain/gcc-arm-none-eabi/bin/../lib/gcc/arm-none-eabi/9.2.1/../../../../arm-none-eabi/lib/thumb/v7e-m+fp/hard\libc_nano.a(lib_a-findfp.o)
__sinit_lock_release                              d:/toolchain/gcc-arm-none-eabi/bin/../lib/gcc/arm-none-eabi/9.2.1/../../../../arm-none-eabi/lib/thumb/v7e-m+fp/hard\libc_nano.a(lib_a-findfp.o)
__smakebuf_r                                      d:/toolchain/gcc-arm-none-eabi/bin/../lib/gcc/arm-none-eabi/9.2.1/../../../../arm-none-eabi/lib/thumb/v7e-m+fp/hard\libc_nano.a(lib_a-makebuf.o)
                                                  d:/toolchain/gcc-arm-none-eabi/bin/../lib/gcc/arm-none-eabi/9.2.1/../../../../arm-none-eabi/lib/thumb/v7e-m+fp/hard\libc_nano.a(lib_a-refill.o)
                                                  d:/toolchain/gcc-arm-none-eabi/bin/../lib/gcc/arm-none-eabi/9.2.1/../../../../arm-none-eabi/lib/thumb/v7e-m+fp/hard\libc_nano.a(lib_a-wsetup.o)
__sprint_r                                        d:/toolchain/gcc-arm-none-eabi/bin/../lib/gcc/arm-none-eabi/9.2.1/../../../../arm-none-eabi/lib/thumb/v7e-m+fp/hard\libc_nano.a(lib_a-nano-vfprintf.o)
__sread                                           d:/toolchain/gcc-arm-none-eabi/bin/../lib/gcc/arm-none-eabi/9.2.1/../../../../arm-none-eabi/lib/thumb/v7e-m+fp/hard\libc_nano.a(lib_a-stdio.o)
                                                  d:/toolchain/gcc-arm-none-eabi/bin/../lib/gcc/arm-none-eabi/9.2.1/../../../../arm-none-eabi/lib/thumb/v7e-m+fp/hard\libc_nano.a(lib_a-findfp.o)
__srefill_r                                       d:/toolchain/gcc-arm-none-eabi/bin/../lib/gcc/arm-none-eabi/9.2.1/../../../../arm-none-eabi/lib/thumb/v7e-m+fp/hard\libc_nano.a(lib_a-refill.o)
                                                  d:/toolchain/gcc-arm-none-eabi/bin/../lib/gcc/arm-none-eabi/9.2.1/../../../../arm-none-eabi/lib/thumb/v7e-m+fp/hard\libc_nano.a(lib_a-rget.o)
__srget                                           d:/toolchain/gcc-arm-none-eabi/bin/../lib/gcc/arm-none-eabi/9.2.1/../../../../arm-none-eabi/lib/thumb/v7e-m+fp/hard\libc_nano.a(lib_a-rget.o)
__srget_r                                         d:/toolchain/gcc-arm-none-eabi/bin/../lib/gcc/arm-none-eabi/9.2.1/../../../../arm-none-eabi/lib/thumb/v7e-m+fp/hard\libc_nano.a(lib_a-rget.o)
                                                  d:/toolchain/gcc-arm-none-eabi/bin/../lib/gcc/arm-none-eabi/9.2.1/../../../../arm-none-eabi/lib/thumb/v7e-m+fp/hard\libc_nano.a(lib_a-getc.o)
__sseek                                           d:/toolchain/gcc-arm-none-eabi/bin/../lib/gcc/arm-none-eabi/9.2.1/../../../../arm-none-eabi/lib/thumb/v7e-m+fp/hard\libc_nano.a(lib_a-stdio.o)
                                                  d:/toolchain/gcc-arm-none-eabi/bin/../lib/gcc/arm-none-eabi/9.2.1/../../../../arm-none-eabi/lib/thumb/v7e-m+fp/hard\libc_nano.a(lib_a-findfp.o)
__ssprint_r                                       d:/toolchain/gcc-arm-none-eabi/bin/../lib/gcc/arm-none-eabi/9.2.1/../../../../arm-none-eabi/lib/thumb/v7e-m+fp/hard\libc_nano.a(lib_a-nano-svfprintf.o)
__ssputs_r                                        d:/toolchain/gcc-arm-none-eabi/bin/../lib/gcc/arm-none-eabi/9.2.1/../../../../arm-none-eabi/lib/thumb/v7e-m+fp/hard\libc_nano.a(lib_a-nano-svfprintf.o)
__stack                                           d:/toolchain/gcc-arm-none-eabi/bin/../lib/gcc/arm-none-eabi/9.2.1/../../../../arm-none-eabi/lib/thumb/v7e-m+fp/hard/crt0.o
__subdf3                                          d:/toolchain/gcc-arm-none-eabi/bin/../lib/gcc/arm-none-eabi/9.2.1/thumb/v7e-m+fp/hard\libgcc.a(_arm_addsubdf3.o)
__swbuf                                           d:/toolchain/gcc-arm-none-eabi/bin/../lib/gcc/arm-none-eabi/9.2.1/../../../../arm-none-eabi/lib/thumb/v7e-m+fp/hard\libc_nano.a(lib_a-wbuf.o)
__swbuf_r                                         d:/toolchain/gcc-arm-none-eabi/bin/../lib/gcc/arm-none-eabi/9.2.1/../../../../arm-none-eabi/lib/thumb/v7e-m+fp/hard\libc_nano.a(lib_a-wbuf.o)
                                                  d:/toolchain/gcc-arm-none-eabi/bin/../lib/gcc/arm-none-eabi/9.2.1/../../../../arm-none-eabi/lib/thumb/v7e-m+fp/hard\libc_nano.a(lib_a-nano-vfprintf.o)
__swhatbuf_r                                      d:/toolchain/gcc-arm-none-eabi/bin/../lib/gcc/arm-none-eabi/9.2.1/../../../../arm-none-eabi/lib/thumb/v7e-m+fp/hard\libc_nano.a(lib_a-makebuf.o)
                                                  d:/toolchain/gcc-arm-none-eabi/bin/../lib/gcc/arm-none-eabi/9.2.1/../../../../arm-none-eabi/lib/thumb/v7e-m+fp/hard\libc_nano.a(lib_a-setvbuf.o)
__swrite                                          d:/toolchain/gcc-arm-none-eabi/bin/../lib/gcc/arm-none-eabi/9.2.1/../../../../arm-none-eabi/lib/thumb/v7e-m+fp/hard\libc_nano.a(lib_a-stdio.o)
                                                  d:/toolchain/gcc-arm-none-eabi/bin/../lib/gcc/arm-none-eabi/9.2.1/../../../../arm-none-eabi/lib/thumb/v7e-m+fp/hard\libc_nano.a(lib_a-findfp.o)
__swsetup_r                                       d:/toolchain/gcc-arm-none-eabi/bin/../lib/gcc/arm-none-eabi/9.2.1/../../../../arm-none-eabi/lib/thumb/v7e-m+fp/hard\libc_nano.a(lib_a-wsetup.o)
                                                  d:/toolchain/gcc-arm-none-eabi/bin/../lib/gcc/arm-none-eabi/9.2.1/../../../../arm-none-eabi/lib/thumb/v7e-m+fp/hard\libc_nano.a(lib_a-fvwrite.o)
                                                  d:/toolchain/gcc-arm-none-eabi/bin/../lib/gcc/arm-none-eabi/9.2.1/../../../../arm-none-eabi/lib/thumb/v7e-m+fp/hard\libc_nano.a(lib_a-wbuf.o)
                                                  d:/toolchain/gcc-arm-none-eabi/bin/../lib/gcc/arm-none-eabi/9.2.1/../../../../arm-none-eabi/lib/thumb/v7e-m+fp/hard\libc_nano.a(lib_a-nano-vfprintf.o)
__truncdfsf2                                      d:/toolchain/gcc-arm-none-eabi/bin/../lib/gcc/arm-none-eabi/9.2.1/thumb/v7e-m+fp/hard\libgcc.a(_arm_truncdfsf2.o)
__udivmoddi4                                      d:/toolchain/gcc-arm-none-eabi/bin/../lib/gcc/arm-none-eabi/9.2.1/thumb/v7e-m+fp/hard\libgcc.a(_udivmoddi4.o)
                                                  d:/toolchain/gcc-arm-none-eabi/bin/../lib/gcc/arm-none-eabi/9.2.1/thumb/v7e-m+fp/hard\libgcc.a(_aeabi_uldivmod.o)
                                                  d:/toolchain/gcc-arm-none-eabi/bin/../lib/gcc/arm-none-eabi/9.2.1/thumb/v7e-m+fp/hard\libgcc.a(_aeabi_ldivmod.o)
__ulp                                             d:/toolchain/gcc-arm-none-eabi/bin/../lib/gcc/arm-none-eabi/9.2.1/../../../../arm-none-eabi/lib/thumb/v7e-m+fp/hard\libc_nano.a(lib_a-mprec.o)
                                                  d:/toolchain/gcc-arm-none-eabi/bin/../lib/gcc/arm-none-eabi/9.2.1/../../../../arm-none-eabi/lib/thumb/v7e-m+fp/hard\libc_nano.a(lib_a-strtod.o)
__unorddf2                                        d:/toolchain/gcc-arm-none-eabi/bin/../lib/gcc/arm-none-eabi/9.2.1/thumb/v7e-m+fp/hard\libgcc.a(_arm_unorddf2.o)
__wrap_printf                                     build/uart.o
_atoi_r                                           d:/toolchain/gcc-arm-none-eabi/bin/../lib/gcc/arm-none-eabi/9.2.1/../../../../arm-none-eabi/lib/thumb/v7e-m+fp/hard\libc_nano.a(lib_a-atoi.o)
_button_thread_func                               build/button.o
_calloc_r                                         d:/toolchain/gcc-arm-none-eabi/bin/../lib/gcc/arm-none-eabi/9.2.1/../../../../arm-none-eabi/lib/thumb/v7e-m+fp/hard\libc_nano.a(lib_a-nano-callocr.o)
                                                  d:/toolchain/gcc-arm-none-eabi/bin/../lib/gcc/arm-none-eabi/9.2.1/../../../../arm-none-eabi/lib/thumb/v7e-m+fp/hard\libc_nano.a(lib_a-mprec.o)
_cleanup                                          d:/toolchain/gcc-arm-none-eabi/bin/../lib/gcc/arm-none-eabi/9.2.1/../../../../arm-none-eabi/lib/thumb/v7e-m+fp/hard\libc_nano.a(lib_a-findfp.o)
_cleanup_r                                        d:/toolchain/gcc-arm-none-eabi/bin/../lib/gcc/arm-none-eabi/9.2.1/../../../../arm-none-eabi/lib/thumb/v7e-m+fp/hard\libc_nano.a(lib_a-findfp.o)
                                                  d:/toolchain/gcc-arm-none-eabi/bin/../lib/gcc/arm-none-eabi/9.2.1/../../../../arm-none-eabi/lib/thumb/v7e-m+fp/hard\libc_nano.a(lib_a-makebuf.o)
_close                                            d:/toolchain/gcc-arm-none-eabi/bin/../lib/gcc/arm-none-eabi/9.2.1/../../../../arm-none-eabi/lib/thumb/v7e-m+fp/hard\libnosys.a(close.o)
                                                  d:/toolchain/gcc-arm-none-eabi/bin/../lib/gcc/arm-none-eabi/9.2.1/../../../../arm-none-eabi/lib/thumb/v7e-m+fp/hard\libc_nano.a(lib_a-closer.o)
_close_r                                          d:/toolchain/gcc-arm-none-eabi/bin/../lib/gcc/arm-none-eabi/9.2.1/../../../../arm-none-eabi/lib/thumb/v7e-m+fp/hard\libc_nano.a(lib_a-closer.o)
                                                  d:/toolchain/gcc-arm-none-eabi/bin/../lib/gcc/arm-none-eabi/9.2.1/../../../../arm-none-eabi/lib/thumb/v7e-m+fp/hard\libc_nano.a(lib_a-stdio.o)
_ctype_                                           d:/toolchain/gcc-arm-none-eabi/bin/../lib/gcc/arm-none-eabi/9.2.1/../../../../arm-none-eabi/lib/thumb/v7e-m+fp/hard\libc_nano.a(lib_a-ctype_.o)
                                                  d:/toolchain/gcc-arm-none-eabi/bin/../lib/gcc/arm-none-eabi/9.2.1/../../../../arm-none-eabi/lib/thumb/v7e-m+fp/hard\libc_nano.a(lib_a-locale.o)
                                                  d:/toolchain/gcc-arm-none-eabi/bin/../lib/gcc/arm-none-eabi/9.2.1/../../../../arm-none-eabi/lib/thumb/v7e-m+fp/hard\libc_nano.a(lib_a-strtol.o)
                                                  build/cmd_parser.o
_dimmerTask_attr                                  build/dimmer_task.o
_dtoa_r                                           d:/toolchain/gcc-arm-none-eabi/bin/../lib/gcc/arm-none-eabi/9.2.1/../../../../arm-none-eabi/lib/thumb/v7e-m+fp/hard\libc_nano.a(lib_a-dtoa.o)
                                                  d:/toolchain/gcc-arm-none-eabi/bin/../lib/gcc/arm-none-eabi/9.2.1/../../../../arm-none-eabi/lib/thumb/v7e-m+fp/hard\libc_nano.a(lib_a-nano-vfprintf_float.o)
_ebss                                             build/startup_stm32f446xx.o
_edata                                            build/startup_stm32f446xx.o
_estack                                           build/startup_stm32f446xx.o
_exit                                             d:/toolchain/gcc-arm-none-eabi/bin/../lib/gcc/arm-none-eabi/9.2.1/../../../../arm-none-eabi/lib/thumb/v7e-m+fp/hard\libnosys.a(_exit.o)
                                                  d:/toolchain/gcc-arm-none-eabi/bin/../lib/gcc/arm-none-eabi/9.2.1/../../../../arm-none-eabi/lib/thumb/v7e-m+fp/hard\libc_nano.a(lib_a-exit.o)
_fflush_r                                         d:/toolchain/gcc-arm-none-eabi/bin/../lib/gcc/arm-none-eabi/9.2.1/../../../../arm-none-eabi/lib/thumb/v7e-m+fp/hard\libc_nano.a(lib_a-fflush.o)
                                                  d:/toolchain/gcc-arm-none-eabi/bin/../lib/gcc/arm-none-eabi/9.2.1/../../../../arm-none-eabi/lib/thumb/v7e-m+fp/hard\libc_nano.a(lib_a-refill.o)
                                                  d:/toolchain/gcc-arm-none-eabi/bin/../lib/gcc/arm-none-eabi/9.2.1/../../../../arm-none-eabi/lib/thumb/v7e-m+fp/hard\libc_nano.a(lib_a-fvwrite.o)
                                                  d:/toolchain/gcc-arm-none-eabi/bin/../lib/gcc/arm-none-eabi/9.2.1/../../../../arm-none-eabi/lib/thumb/v7e-m+fp/hard\libc_nano.a(lib_a-wbuf.o)
                                                  d:/toolchain/gcc-arm-none-eabi/bin/../lib/gcc/arm-none-eabi/9.2.1/../../../../arm-none-eabi/lib/thumb/v7e-m+fp/hard\libc_nano.a(lib_a-findfp.o)
                                                  d:/toolchain/gcc-arm-none-eabi/bin/../lib/gcc/arm-none-eabi/9.2.1/../../../../arm-none-eabi/lib/thumb/v7e-m+fp/hard\libc_nano.a(lib_a-setvbuf.o)
_fini                                             d:/toolchain/gcc-arm-none-eabi/bin/../lib/gcc/arm-none-eabi/9.2.1/thumb/v7e-m+fp/hard/crti.o
_fiprintf_r                                       d:/toolchain/gcc-arm-none-eabi/bin/../lib/gcc/arm-none-eabi/9.2.1/../../../../arm-none-eabi/lib/thumb/v7e-m+fp/hard\libc_nano.a(lib_a-fprintf.o)
_fprintf_r                                        d:/toolchain/gcc-arm-none-eabi/bin/../lib/gcc/arm-none-eabi/9.2.1/../../../../arm-none-eabi/lib/thumb/v7e-m+fp/hard\libc_nano.a(lib_a-fprintf.o)
_free_r                                           d:/toolchain/gcc-arm-none-eabi/bin/../lib/gcc/arm-none-eabi/9.2.1/../../../../arm-none-eabi/lib/thumb/v7e-m+fp/hard\libc_nano.a(lib_a-nano-freer.o)
                                                  d:/toolchain/gcc-arm-none-eabi/bin/../lib/gcc/arm-none-eabi/9.2.1/../../../../arm-none-eabi/lib/thumb/v7e-m+fp/hard\libc_nano.a(lib_a-refill.o)
                                                  d:/toolchain/gcc-arm-none-eabi/bin/../lib/gcc/arm-none-eabi/9.2.1/../../../../arm-none-eabi/lib/thumb/v7e-m+fp/hard\libc_nano.a(lib_a-nano-reallocr.o)
                                                  d:/toolchain/gcc-arm-none-eabi/bin/../lib/gcc/arm-none-eabi/9.2.1/../../../../arm-none-eabi/lib/thumb/v7e-m+fp/hard\libc_nano.a(lib_a-fvwrite.o)
                                                  d:/toolchain/gcc-arm-none-eabi/bin/../lib/gcc/arm-none-eabi/9.2.1/../../../../arm-none-eabi/lib/thumb/v7e-m+fp/hard\libc_nano.a(lib_a-wsetup.o)
                                                  d:/toolchain/gcc-arm-none-eabi/bin/../lib/gcc/arm-none-eabi/9.2.1/../../../../arm-none-eabi/lib/thumb/v7e-m+fp/hard\libc_nano.a(lib_a-nano-svfprintf.o)
                                                  d:/toolchain/gcc-arm-none-eabi/bin/../lib/gcc/arm-none-eabi/9.2.1/../../../../arm-none-eabi/lib/thumb/v7e-m+fp/hard\libc_nano.a(lib_a-fflush.o)
                                                  d:/toolchain/gcc-arm-none-eabi/bin/../lib/gcc/arm-none-eabi/9.2.1/../../../../arm-none-eabi/lib/thumb/v7e-m+fp/hard\libc_nano.a(lib_a-setvbuf.o)
                                                  d:/toolchain/gcc-arm-none-eabi/bin/../lib/gcc/arm-none-eabi/9.2.1/../../../../arm-none-eabi/lib/thumb/v7e-m+fp/hard\libc_nano.a(lib_a-reent.o)
                                                  d:/toolchain/gcc-arm-none-eabi/bin/../lib/gcc/arm-none-eabi/9.2.1/../../../../arm-none-eabi/lib/thumb/v7e-m+fp/hard\libc_nano.a(lib_a-malloc.o)
_fstat                                            d:/toolchain/gcc-arm-none-eabi/bin/../lib/gcc/arm-none-eabi/9.2.1/../../../../arm-none-eabi/lib/thumb/v7e-m+fp/hard\libnosys.a(fstat.o)
                                                  d:/toolchain/gcc-arm-none-eabi/bin/../lib/gcc/arm-none-eabi/9.2.1/../../../../arm-none-eabi/lib/thumb/v7e-m+fp/hard\libc_nano.a(lib_a-fstatr.o)
_fstat_r                                          d:/toolchain/gcc-arm-none-eabi/bin/../lib/gcc/arm-none-eabi/9.2.1/../../../../arm-none-eabi/lib/thumb/v7e-m+fp/hard\libc_nano.a(lib_a-fstatr.o)
                                                  d:/toolchain/gcc-arm-none-eabi/bin/../lib/gcc/arm-none-eabi/9.2.1/../../../../arm-none-eabi/lib/thumb/v7e-m+fp/hard\libc_nano.a(lib_a-makebuf.o)
_fwalk                                            d:/toolchain/gcc-arm-none-eabi/bin/../lib/gcc/arm-none-eabi/9.2.1/../../../../arm-none-eabi/lib/thumb/v7e-m+fp/hard\libc_nano.a(lib_a-fwalk.o)
                                                  d:/toolchain/gcc-arm-none-eabi/bin/../lib/gcc/arm-none-eabi/9.2.1/../../../../arm-none-eabi/lib/thumb/v7e-m+fp/hard\libc_nano.a(lib_a-refill.o)
                                                  d:/toolchain/gcc-arm-none-eabi/bin/../lib/gcc/arm-none-eabi/9.2.1/../../../../arm-none-eabi/lib/thumb/v7e-m+fp/hard\libc_nano.a(lib_a-findfp.o)
_fwalk_reent                                      d:/toolchain/gcc-arm-none-eabi/bin/../lib/gcc/arm-none-eabi/9.2.1/../../../../arm-none-eabi/lib/thumb/v7e-m+fp/hard\libc_nano.a(lib_a-fwalk.o)
                                                  d:/toolchain/gcc-arm-none-eabi/bin/../lib/gcc/arm-none-eabi/9.2.1/../../../../arm-none-eabi/lib/thumb/v7e-m+fp/hard\libc_nano.a(lib_a-findfp.o)
                                                  d:/toolchain/gcc-arm-none-eabi/bin/../lib/gcc/arm-none-eabi/9.2.1/../../../../arm-none-eabi/lib/thumb/v7e-m+fp/hard\libc_nano.a(lib_a-fflush.o)
_getc_r                                           d:/toolchain/gcc-arm-none-eabi/bin/../lib/gcc/arm-none-eabi/9.2.1/../../../../arm-none-eabi/lib/thumb/v7e-m+fp/hard\libc_nano.a(lib_a-getc.o)
                                                  d:/toolchain/gcc-arm-none-eabi/bin/../lib/gcc/arm-none-eabi/9.2.1/../../../../arm-none-eabi/lib/thumb/v7e-m+fp/hard\libc_nano.a(lib_a-getchar.o)
_getchar_r                                        d:/toolchain/gcc-arm-none-eabi/bin/../lib/gcc/arm-none-eabi/9.2.1/../../../../arm-none-eabi/lib/thumb/v7e-m+fp/hard\libc_nano.a(lib_a-getchar.o)
_global_impure_ptr                                d:/toolchain/gcc-arm-none-eabi/bin/../lib/gcc/arm-none-eabi/9.2.1/../../../../arm-none-eabi/lib/thumb/v7e-m+fp/hard\libc_nano.a(lib_a-impure.o)
                                                  d:/toolchain/gcc-arm-none-eabi/bin/../lib/gcc/arm-none-eabi/9.2.1/../../../../arm-none-eabi/lib/thumb/v7e-m+fp/hard\libc_nano.a(lib_a-refill.o)
                                                  d:/toolchain/gcc-arm-none-eabi/bin/../lib/gcc/arm-none-eabi/9.2.1/../../../../arm-none-eabi/lib/thumb/v7e-m+fp/hard\libc_nano.a(lib_a-findfp.o)
                                                  d:/toolchain/gcc-arm-none-eabi/bin/../lib/gcc/arm-none-eabi/9.2.1/../../../../arm-none-eabi/lib/thumb/v7e-m+fp/hard\libc_nano.a(lib_a-fflush.o)
                                                  d:/toolchain/gcc-arm-none-eabi/bin/../lib/gcc/arm-none-eabi/9.2.1/../../../../arm-none-eabi/lib/thumb/v7e-m+fp/hard\libc_nano.a(lib_a-exit.o)
_impure_ptr                                       d:/toolchain/gcc-arm-none-eabi/bin/../lib/gcc/arm-none-eabi/9.2.1/../../../../arm-none-eabi/lib/thumb/v7e-m+fp/hard\libc_nano.a(lib_a-impure.o)
                                                  d:/toolchain/gcc-arm-none-eabi/bin/../lib/gcc/arm-none-eabi/9.2.1/../../../../arm-none-eabi/lib/thumb/v7e-m+fp/hard\libc_nano.a(lib_a-wsetup.o)
                                                  d:/toolchain/gcc-arm-none-eabi/bin/../lib/gcc/arm-none-eabi/9.2.1/../../../../arm-none-eabi/lib/thumb/v7e-m+fp/hard\libc_nano.a(lib_a-wbuf.o)
                                                  d:/toolchain/gcc-arm-none-eabi/bin/../lib/gcc/arm-none-eabi/9.2.1/../../../../arm-none-eabi/lib/thumb/v7e-m+fp/hard\libc_nano.a(lib_a-rget.o)
                                                  d:/toolchain/gcc-arm-none-eabi/bin/../lib/gcc/arm-none-eabi/9.2.1/../../../../arm-none-eabi/lib/thumb/v7e-m+fp/hard\libc_nano.a(lib_a-nano-vfprintf.o)
                                                  d:/toolchain/gcc-arm-none-eabi/bin/../lib/gcc/arm-none-eabi/9.2.1/../../../../arm-none-eabi/lib/thumb/v7e-m+fp/hard\libc_nano.a(lib_a-locale.o)
                                                  d:/toolchain/gcc-arm-none-eabi/bin/../lib/gcc/arm-none-eabi/9.2.1/../../../../arm-none-eabi/lib/thumb/v7e-m+fp/hard\libc_nano.a(lib_a-getc.o)
                                                  d:/toolchain/gcc-arm-none-eabi/bin/../lib/gcc/arm-none-eabi/9.2.1/../../../../arm-none-eabi/lib/thumb/v7e-m+fp/hard\libc_nano.a(lib_a-fprintf.o)
                                                  d:/toolchain/gcc-arm-none-eabi/bin/../lib/gcc/arm-none-eabi/9.2.1/../../../../arm-none-eabi/lib/thumb/v7e-m+fp/hard\libc_nano.a(lib_a-findfp.o)
                                                  d:/toolchain/gcc-arm-none-eabi/bin/../lib/gcc/arm-none-eabi/9.2.1/../../../../arm-none-eabi/lib/thumb/v7e-m+fp/hard\libc_nano.a(lib_a-fflush.o)
                                                  d:/toolchain/gcc-arm-none-eabi/bin/../lib/gcc/arm-none-eabi/9.2.1/../../../../arm-none-eabi/lib/thumb/v7e-m+fp/hard\libc_nano.a(lib_a-vprintf.o)
                                                  d:/toolchain/gcc-arm-none-eabi/bin/../lib/gcc/arm-none-eabi/9.2.1/../../../../arm-none-eabi/lib/thumb/v7e-m+fp/hard\libc_nano.a(lib_a-strtol.o)
                                                  d:/toolchain/gcc-arm-none-eabi/bin/../lib/gcc/arm-none-eabi/9.2.1/../../../../arm-none-eabi/lib/thumb/v7e-m+fp/hard\libc_nano.a(lib_a-strtod.o)
                                                  d:/toolchain/gcc-arm-none-eabi/bin/../lib/gcc/arm-none-eabi/9.2.1/../../../../arm-none-eabi/lib/thumb/v7e-m+fp/hard\libc_nano.a(lib_a-sprintf.o)
                                                  d:/toolchain/gcc-arm-none-eabi/bin/../lib/gcc/arm-none-eabi/9.2.1/../../../../arm-none-eabi/lib/thumb/v7e-m+fp/hard\libc_nano.a(lib_a-setvbuf.o)
                                                  d:/toolchain/gcc-arm-none-eabi/bin/../lib/gcc/arm-none-eabi/9.2.1/../../../../arm-none-eabi/lib/thumb/v7e-m+fp/hard\libc_nano.a(lib_a-reent.o)
                                                  d:/toolchain/gcc-arm-none-eabi/bin/../lib/gcc/arm-none-eabi/9.2.1/../../../../arm-none-eabi/lib/thumb/v7e-m+fp/hard\libc_nano.a(lib_a-printf.o)
                                                  d:/toolchain/gcc-arm-none-eabi/bin/../lib/gcc/arm-none-eabi/9.2.1/../../../../arm-none-eabi/lib/thumb/v7e-m+fp/hard\libc_nano.a(lib_a-nano-mallstatsr.o)
                                                  d:/toolchain/gcc-arm-none-eabi/bin/../lib/gcc/arm-none-eabi/9.2.1/../../../../arm-none-eabi/lib/thumb/v7e-m+fp/hard\libc_nano.a(lib_a-mstats.o)
                                                  d:/toolchain/gcc-arm-none-eabi/bin/../lib/gcc/arm-none-eabi/9.2.1/../../../../arm-none-eabi/lib/thumb/v7e-m+fp/hard\libc_nano.a(lib_a-malloc.o)
                                                  d:/toolchain/gcc-arm-none-eabi/bin/../lib/gcc/arm-none-eabi/9.2.1/../../../../arm-none-eabi/lib/thumb/v7e-m+fp/hard\libc_nano.a(lib_a-getchar.o)
                                                  build/FreeRTOS/heap_useNewlib.o
                                                  build/FreeRTOS/tasks.o
                                                  build/uart.o
_init                                             d:/toolchain/gcc-arm-none-eabi/bin/../lib/gcc/arm-none-eabi/9.2.1/thumb/v7e-m+fp/hard/crti.o
                                                  d:/toolchain/gcc-arm-none-eabi/bin/../lib/gcc/arm-none-eabi/9.2.1/../../../../arm-none-eabi/lib/thumb/v7e-m+fp/hard\libc_nano.a(lib_a-init.o)
_iprintf_r                                        d:/toolchain/gcc-arm-none-eabi/bin/../lib/gcc/arm-none-eabi/9.2.1/../../../../arm-none-eabi/lib/thumb/v7e-m+fp/hard\libc_nano.a(lib_a-printf.o)
_isatty                                           d:/toolchain/gcc-arm-none-eabi/bin/../lib/gcc/arm-none-eabi/9.2.1/../../../../arm-none-eabi/lib/thumb/v7e-m+fp/hard\libnosys.a(isatty.o)
                                                  d:/toolchain/gcc-arm-none-eabi/bin/../lib/gcc/arm-none-eabi/9.2.1/../../../../arm-none-eabi/lib/thumb/v7e-m+fp/hard\libc_nano.a(lib_a-isattyr.o)
_isatty_r                                         d:/toolchain/gcc-arm-none-eabi/bin/../lib/gcc/arm-none-eabi/9.2.1/../../../../arm-none-eabi/lib/thumb/v7e-m+fp/hard\libc_nano.a(lib_a-isattyr.o)
                                                  d:/toolchain/gcc-arm-none-eabi/bin/../lib/gcc/arm-none-eabi/9.2.1/../../../../arm-none-eabi/lib/thumb/v7e-m+fp/hard\libc_nano.a(lib_a-makebuf.o)
_localeconv_r                                     d:/toolchain/gcc-arm-none-eabi/bin/../lib/gcc/arm-none-eabi/9.2.1/../../../../arm-none-eabi/lib/thumb/v7e-m+fp/hard\libc_nano.a(lib_a-localeconv.o)
                                                  d:/toolchain/gcc-arm-none-eabi/bin/../lib/gcc/arm-none-eabi/9.2.1/../../../../arm-none-eabi/lib/thumb/v7e-m+fp/hard\libc_nano.a(lib_a-nano-vfprintf_float.o)
_lseek                                            d:/toolchain/gcc-arm-none-eabi/bin/../lib/gcc/arm-none-eabi/9.2.1/../../../../arm-none-eabi/lib/thumb/v7e-m+fp/hard\libnosys.a(lseek.o)
                                                  d:/toolchain/gcc-arm-none-eabi/bin/../lib/gcc/arm-none-eabi/9.2.1/../../../../arm-none-eabi/lib/thumb/v7e-m+fp/hard\libc_nano.a(lib_a-lseekr.o)
_lseek_r                                          d:/toolchain/gcc-arm-none-eabi/bin/../lib/gcc/arm-none-eabi/9.2.1/../../../../arm-none-eabi/lib/thumb/v7e-m+fp/hard\libc_nano.a(lib_a-lseekr.o)
                                                  d:/toolchain/gcc-arm-none-eabi/bin/../lib/gcc/arm-none-eabi/9.2.1/../../../../arm-none-eabi/lib/thumb/v7e-m+fp/hard\libc_nano.a(lib_a-stdio.o)
_mainCRTStartup                                   d:/toolchain/gcc-arm-none-eabi/bin/../lib/gcc/arm-none-eabi/9.2.1/../../../../arm-none-eabi/lib/thumb/v7e-m+fp/hard/crt0.o
_mallinfo_r                                       d:/toolchain/gcc-arm-none-eabi/bin/../lib/gcc/arm-none-eabi/9.2.1/../../../../arm-none-eabi/lib/thumb/v7e-m+fp/hard\libc_nano.a(lib_a-nano-mallinfor.o)
                                                  d:/toolchain/gcc-arm-none-eabi/bin/../lib/gcc/arm-none-eabi/9.2.1/../../../../arm-none-eabi/lib/thumb/v7e-m+fp/hard\libc_nano.a(lib_a-nano-mallstatsr.o)
                                                  d:/toolchain/gcc-arm-none-eabi/bin/../lib/gcc/arm-none-eabi/9.2.1/../../../../arm-none-eabi/lib/thumb/v7e-m+fp/hard\libc_nano.a(lib_a-mstats.o)
_malloc_r                                         d:/toolchain/gcc-arm-none-eabi/bin/../lib/gcc/arm-none-eabi/9.2.1/../../../../arm-none-eabi/lib/thumb/v7e-m+fp/hard\libc_nano.a(lib_a-nano-mallocr.o)
                                                  d:/toolchain/gcc-arm-none-eabi/bin/../lib/gcc/arm-none-eabi/9.2.1/../../../../arm-none-eabi/lib/thumb/v7e-m+fp/hard\libc_nano.a(lib_a-nano-reallocr.o)
                                                  d:/toolchain/gcc-arm-none-eabi/bin/../lib/gcc/arm-none-eabi/9.2.1/../../../../arm-none-eabi/lib/thumb/v7e-m+fp/hard\libc_nano.a(lib_a-fvwrite.o)
                                                  d:/toolchain/gcc-arm-none-eabi/bin/../lib/gcc/arm-none-eabi/9.2.1/../../../../arm-none-eabi/lib/thumb/v7e-m+fp/hard\libc_nano.a(lib_a-nano-svfprintf.o)
                                                  d:/toolchain/gcc-arm-none-eabi/bin/../lib/gcc/arm-none-eabi/9.2.1/../../../../arm-none-eabi/lib/thumb/v7e-m+fp/hard\libc_nano.a(lib_a-nano-callocr.o)
                                                  d:/toolchain/gcc-arm-none-eabi/bin/../lib/gcc/arm-none-eabi/9.2.1/../../../../arm-none-eabi/lib/thumb/v7e-m+fp/hard\libc_nano.a(lib_a-makebuf.o)
                                                  d:/toolchain/gcc-arm-none-eabi/bin/../lib/gcc/arm-none-eabi/9.2.1/../../../../arm-none-eabi/lib/thumb/v7e-m+fp/hard\libc_nano.a(lib_a-findfp.o)
                                                  d:/toolchain/gcc-arm-none-eabi/bin/../lib/gcc/arm-none-eabi/9.2.1/../../../../arm-none-eabi/lib/thumb/v7e-m+fp/hard\libc_nano.a(lib_a-malloc.o)
_malloc_stats_r                                   d:/toolchain/gcc-arm-none-eabi/bin/../lib/gcc/arm-none-eabi/9.2.1/../../../../arm-none-eabi/lib/thumb/v7e-m+fp/hard\libc_nano.a(lib_a-nano-mallstatsr.o)
                                                  d:/toolchain/gcc-arm-none-eabi/bin/../lib/gcc/arm-none-eabi/9.2.1/../../../../arm-none-eabi/lib/thumb/v7e-m+fp/hard\libc_nano.a(lib_a-mstats.o)
_malloc_usable_size_r                             d:/toolchain/gcc-arm-none-eabi/bin/../lib/gcc/arm-none-eabi/9.2.1/../../../../arm-none-eabi/lib/thumb/v7e-m+fp/hard\libc_nano.a(lib_a-nano-msizer.o)
                                                  d:/toolchain/gcc-arm-none-eabi/bin/../lib/gcc/arm-none-eabi/9.2.1/../../../../arm-none-eabi/lib/thumb/v7e-m+fp/hard\libc_nano.a(lib_a-nano-reallocr.o)
_mallopt_r                                        d:/toolchain/gcc-arm-none-eabi/bin/../lib/gcc/arm-none-eabi/9.2.1/../../../../arm-none-eabi/lib/thumb/v7e-m+fp/hard\libc_nano.a(lib_a-nano-malloptr.o)
                                                  d:/toolchain/gcc-arm-none-eabi/bin/../lib/gcc/arm-none-eabi/9.2.1/../../../../arm-none-eabi/lib/thumb/v7e-m+fp/hard\libc_nano.a(lib_a-mstats.o)
_mbtowc_r                                         d:/toolchain/gcc-arm-none-eabi/bin/../lib/gcc/arm-none-eabi/9.2.1/../../../../arm-none-eabi/lib/thumb/v7e-m+fp/hard\libc_nano.a(lib_a-mbtowc_r.o)
_mprec_log10                                      d:/toolchain/gcc-arm-none-eabi/bin/../lib/gcc/arm-none-eabi/9.2.1/../../../../arm-none-eabi/lib/thumb/v7e-m+fp/hard\libc_nano.a(lib_a-mprec.o)
_mstats_r                                         d:/toolchain/gcc-arm-none-eabi/bin/../lib/gcc/arm-none-eabi/9.2.1/../../../../arm-none-eabi/lib/thumb/v7e-m+fp/hard\libc_nano.a(lib_a-mstats.o)
_printf_common                                    d:/toolchain/gcc-arm-none-eabi/bin/../lib/gcc/arm-none-eabi/9.2.1/../../../../arm-none-eabi/lib/thumb/v7e-m+fp/hard\libc_nano.a(lib_a-nano-vfprintf_i.o)
                                                  d:/toolchain/gcc-arm-none-eabi/bin/../lib/gcc/arm-none-eabi/9.2.1/../../../../arm-none-eabi/lib/thumb/v7e-m+fp/hard\libc_nano.a(lib_a-nano-vfprintf_float.o)
_printf_float                                     d:/toolchain/gcc-arm-none-eabi/bin/../lib/gcc/arm-none-eabi/9.2.1/../../../../arm-none-eabi/lib/thumb/v7e-m+fp/hard\libc_nano.a(lib_a-nano-vfprintf_float.o)
                                                  d:/toolchain/gcc-arm-none-eabi/bin/../lib/gcc/arm-none-eabi/9.2.1/../../../../arm-none-eabi/lib/thumb/v7e-m+fp/hard\libc_nano.a(lib_a-nano-vfprintf.o)
                                                  d:/toolchain/gcc-arm-none-eabi/bin/../lib/gcc/arm-none-eabi/9.2.1/../../../../arm-none-eabi/lib/thumb/v7e-m+fp/hard\libc_nano.a(lib_a-nano-svfprintf.o)
_printf_i                                         d:/toolchain/gcc-arm-none-eabi/bin/../lib/gcc/arm-none-eabi/9.2.1/../../../../arm-none-eabi/lib/thumb/v7e-m+fp/hard\libc_nano.a(lib_a-nano-vfprintf_i.o)
                                                  d:/toolchain/gcc-arm-none-eabi/bin/../lib/gcc/arm-none-eabi/9.2.1/../../../../arm-none-eabi/lib/thumb/v7e-m+fp/hard\libc_nano.a(lib_a-nano-vfprintf.o)
                                                  d:/toolchain/gcc-arm-none-eabi/bin/../lib/gcc/arm-none-eabi/9.2.1/../../../../arm-none-eabi/lib/thumb/v7e-m+fp/hard\libc_nano.a(lib_a-nano-svfprintf.o)
_printf_r                                         d:/toolchain/gcc-arm-none-eabi/bin/../lib/gcc/arm-none-eabi/9.2.1/../../../../arm-none-eabi/lib/thumb/v7e-m+fp/hard\libc_nano.a(lib_a-printf.o)
_read                                             build/uart.o
                                                  d:/toolchain/gcc-arm-none-eabi/bin/../lib/gcc/arm-none-eabi/9.2.1/../../../../arm-none-eabi/lib/thumb/v7e-m+fp/hard\libc_nano.a(lib_a-readr.o)
_read_r                                           d:/toolchain/gcc-arm-none-eabi/bin/../lib/gcc/arm-none-eabi/9.2.1/../../../../arm-none-eabi/lib/thumb/v7e-m+fp/hard\libc_nano.a(lib_a-readr.o)
                                                  d:/toolchain/gcc-arm-none-eabi/bin/../lib/gcc/arm-none-eabi/9.2.1/../../../../arm-none-eabi/lib/thumb/v7e-m+fp/hard\libc_nano.a(lib_a-stdio.o)
_realloc_r                                        d:/toolchain/gcc-arm-none-eabi/bin/../lib/gcc/arm-none-eabi/9.2.1/../../../../arm-none-eabi/lib/thumb/v7e-m+fp/hard\libc_nano.a(lib_a-nano-reallocr.o)
                                                  d:/toolchain/gcc-arm-none-eabi/bin/../lib/gcc/arm-none-eabi/9.2.1/../../../../arm-none-eabi/lib/thumb/v7e-m+fp/hard\libc_nano.a(lib_a-fvwrite.o)
                                                  d:/toolchain/gcc-arm-none-eabi/bin/../lib/gcc/arm-none-eabi/9.2.1/../../../../arm-none-eabi/lib/thumb/v7e-m+fp/hard\libc_nano.a(lib_a-nano-svfprintf.o)
_reclaim_reent                                    d:/toolchain/gcc-arm-none-eabi/bin/../lib/gcc/arm-none-eabi/9.2.1/../../../../arm-none-eabi/lib/thumb/v7e-m+fp/hard\libc_nano.a(lib_a-reent.o)
                                                  build/FreeRTOS/tasks.o
_sbrk                                             build/FreeRTOS/heap_useNewlib.o
                                                  d:/toolchain/gcc-arm-none-eabi/bin/../lib/gcc/arm-none-eabi/9.2.1/../../../../arm-none-eabi/lib/thumb/v7e-m+fp/hard\libc_nano.a(lib_a-sbrkr.o)
_sbrk_r                                           d:/toolchain/gcc-arm-none-eabi/bin/../lib/gcc/arm-none-eabi/9.2.1/../../../../arm-none-eabi/lib/thumb/v7e-m+fp/hard\libc_nano.a(lib_a-sbrkr.o)
                                                  d:/toolchain/gcc-arm-none-eabi/bin/../lib/gcc/arm-none-eabi/9.2.1/../../../../arm-none-eabi/lib/thumb/v7e-m+fp/hard\libc_nano.a(lib_a-nano-mallocr.o)
                                                  d:/toolchain/gcc-arm-none-eabi/bin/../lib/gcc/arm-none-eabi/9.2.1/../../../../arm-none-eabi/lib/thumb/v7e-m+fp/hard\libc_nano.a(lib_a-nano-mallinfor.o)
_sbss                                             build/startup_stm32f446xx.o
_scanf_float                                      d:/toolchain/gcc-arm-none-eabi/bin/../lib/gcc/arm-none-eabi/9.2.1/../../../../arm-none-eabi/lib/thumb/v7e-m+fp/hard\libc_nano.a(lib_a-nano-vfscanf_float.o)
_sdata                                            build/startup_stm32f446xx.o
_setlocale_r                                      d:/toolchain/gcc-arm-none-eabi/bin/../lib/gcc/arm-none-eabi/9.2.1/../../../../arm-none-eabi/lib/thumb/v7e-m+fp/hard\libc_nano.a(lib_a-locale.o)
_sidata                                           build/startup_stm32f446xx.o
_siprintf_r                                       d:/toolchain/gcc-arm-none-eabi/bin/../lib/gcc/arm-none-eabi/9.2.1/../../../../arm-none-eabi/lib/thumb/v7e-m+fp/hard\libc_nano.a(lib_a-sprintf.o)
_sprintf_r                                        d:/toolchain/gcc-arm-none-eabi/bin/../lib/gcc/arm-none-eabi/9.2.1/../../../../arm-none-eabi/lib/thumb/v7e-m+fp/hard\libc_nano.a(lib_a-sprintf.o)
_start                                            d:/toolchain/gcc-arm-none-eabi/bin/../lib/gcc/arm-none-eabi/9.2.1/../../../../arm-none-eabi/lib/thumb/v7e-m+fp/hard/crt0.o
_strtod_l                                         d:/toolchain/gcc-arm-none-eabi/bin/../lib/gcc/arm-none-eabi/9.2.1/../../../../arm-none-eabi/lib/thumb/v7e-m+fp/hard\libc_nano.a(lib_a-strtod.o)
_strtod_r                                         d:/toolchain/gcc-arm-none-eabi/bin/../lib/gcc/arm-none-eabi/9.2.1/../../../../arm-none-eabi/lib/thumb/v7e-m+fp/hard\libc_nano.a(lib_a-strtod.o)
                                                  d:/toolchain/gcc-arm-none-eabi/bin/../lib/gcc/arm-none-eabi/9.2.1/../../../../arm-none-eabi/lib/thumb/v7e-m+fp/hard\libc_nano.a(lib_a-nano-vfscanf_float.o)
_strtol_r                                         d:/toolchain/gcc-arm-none-eabi/bin/../lib/gcc/arm-none-eabi/9.2.1/../../../../arm-none-eabi/lib/thumb/v7e-m+fp/hard\libc_nano.a(lib_a-strtol.o)
                                                  d:/toolchain/gcc-arm-none-eabi/bin/../lib/gcc/arm-none-eabi/9.2.1/../../../../arm-none-eabi/lib/thumb/v7e-m+fp/hard\libc_nano.a(lib_a-nano-vfscanf_float.o)
                                                  d:/toolchain/gcc-arm-none-eabi/bin/../lib/gcc/arm-none-eabi/9.2.1/../../../../arm-none-eabi/lib/thumb/v7e-m+fp/hard\libc_nano.a(lib_a-atoi.o)
_svfiprintf_r                                     d:/toolchain/gcc-arm-none-eabi/bin/../lib/gcc/arm-none-eabi/9.2.1/../../../../arm-none-eabi/lib/thumb/v7e-m+fp/hard\libc_nano.a(lib_a-nano-svfprintf.o)
_svfprintf_r                                      d:/toolchain/gcc-arm-none-eabi/bin/../lib/gcc/arm-none-eabi/9.2.1/../../../../arm-none-eabi/lib/thumb/v7e-m+fp/hard\libc_nano.a(lib_a-nano-svfprintf.o)
                                                  d:/toolchain/gcc-arm-none-eabi/bin/../lib/gcc/arm-none-eabi/9.2.1/../../../../arm-none-eabi/lib/thumb/v7e-m+fp/hard\libc_nano.a(lib_a-sprintf.o)
_uart_error                                       build/uart.o
_uart_rxne_isr                                    build/uart.o
_uart_txe_isr                                     build/uart.o
_vfiprintf_r                                      d:/toolchain/gcc-arm-none-eabi/bin/../lib/gcc/arm-none-eabi/9.2.1/../../../../arm-none-eabi/lib/thumb/v7e-m+fp/hard\libc_nano.a(lib_a-nano-vfprintf.o)
_vfprintf_r                                       d:/toolchain/gcc-arm-none-eabi/bin/../lib/gcc/arm-none-eabi/9.2.1/../../../../arm-none-eabi/lib/thumb/v7e-m+fp/hard\libc_nano.a(lib_a-nano-vfprintf.o)
                                                  d:/toolchain/gcc-arm-none-eabi/bin/../lib/gcc/arm-none-eabi/9.2.1/../../../../arm-none-eabi/lib/thumb/v7e-m+fp/hard\libc_nano.a(lib_a-fprintf.o)
                                                  d:/toolchain/gcc-arm-none-eabi/bin/../lib/gcc/arm-none-eabi/9.2.1/../../../../arm-none-eabi/lib/thumb/v7e-m+fp/hard\libc_nano.a(lib_a-vprintf.o)
                                                  d:/toolchain/gcc-arm-none-eabi/bin/../lib/gcc/arm-none-eabi/9.2.1/../../../../arm-none-eabi/lib/thumb/v7e-m+fp/hard\libc_nano.a(lib_a-printf.o)
_viprintf_r                                       d:/toolchain/gcc-arm-none-eabi/bin/../lib/gcc/arm-none-eabi/9.2.1/../../../../arm-none-eabi/lib/thumb/v7e-m+fp/hard\libc_nano.a(lib_a-vprintf.o)
_vprintf_r                                        d:/toolchain/gcc-arm-none-eabi/bin/../lib/gcc/arm-none-eabi/9.2.1/../../../../arm-none-eabi/lib/thumb/v7e-m+fp/hard\libc_nano.a(lib_a-vprintf.o)
_wctomb_r                                         d:/toolchain/gcc-arm-none-eabi/bin/../lib/gcc/arm-none-eabi/9.2.1/../../../../arm-none-eabi/lib/thumb/v7e-m+fp/hard\libc_nano.a(lib_a-wctomb_r.o)
_write                                            build/uart.o
                                                  d:/toolchain/gcc-arm-none-eabi/bin/../lib/gcc/arm-none-eabi/9.2.1/../../../../arm-none-eabi/lib/thumb/v7e-m+fp/hard\libc_nano.a(lib_a-writer.o)
_write_r                                          d:/toolchain/gcc-arm-none-eabi/bin/../lib/gcc/arm-none-eabi/9.2.1/../../../../arm-none-eabi/lib/thumb/v7e-m+fp/hard\libc_nano.a(lib_a-writer.o)
                                                  d:/toolchain/gcc-arm-none-eabi/bin/../lib/gcc/arm-none-eabi/9.2.1/../../../../arm-none-eabi/lib/thumb/v7e-m+fp/hard\libc_nano.a(lib_a-stdio.o)
atexit                                            d:/toolchain/gcc-arm-none-eabi/bin/../lib/gcc/arm-none-eabi/9.2.1/../../../../arm-none-eabi/lib/thumb/v7e-m+fp/hard/crt0.o
atoi                                              d:/toolchain/gcc-arm-none-eabi/bin/../lib/gcc/arm-none-eabi/9.2.1/../../../../arm-none-eabi/lib/thumb/v7e-m+fp/hard\libc_nano.a(lib_a-atoi.o)
                                                  build/cmd_parser.o
button_clear_pressed                              build/button.o
button_debounce                                   build/button.o
button_deinit                                     build/button.o
button_get_pressed                                build/button.o
button_init                                       build/button.o
                                                  build/main.o
button_isr                                        build/button.o
button_pop_pressed                                build/button.o
button_set_pressed                                build/button.o
clb_consume_char                                  build/cmd_line_buffer.o
clb_consume_str                                   build/cmd_line_buffer.o
clb_delc                                          build/cmd_line_buffer.o
clb_gets                                          build/cmd_line_buffer.o
clb_gets_at                                       build/cmd_line_buffer.o
clb_init                                          build/cmd_line_buffer.o
                                                  build/cmd_task.o
clb_is_cmd_ready                                  build/cmd_line_buffer.o
clb_is_empty                                      build/cmd_line_buffer.o
clb_is_full                                       build/cmd_line_buffer.o
clb_process                                       build/cmd_line_buffer.o
                                                  build/cmd_task.o
clb_putc                                          build/cmd_line_buffer.o
cleanup_glue                                      d:/toolchain/gcc-arm-none-eabi/bin/../lib/gcc/arm-none-eabi/9.2.1/../../../../arm-none-eabi/lib/thumb/v7e-m+fp/hard\libc_nano.a(lib_a-reent.o)
cmdTask_attr                                      build/cmd_task.o
cmd_parse                                         build/cmd_parser.o
                                                  build/cmd_line_buffer.o
cmd_task_init                                     build/cmd_task.o
                                                  build/main.o
dimmer_task_deinit                                build/dimmer_task.o
dimmer_task_init                                  build/dimmer_task.o
                                                  build/main.o
dimmer_task_is_running                            build/dimmer_task.o
                                                  build/cmd_parser.o
dimmer_task_resume                                build/dimmer_task.o
                                                  build/cmd_parser.o
dimmer_task_stop                                  build/dimmer_task.o
                                                  build/cmd_parser.o
eTaskGetState                                     build/FreeRTOS/tasks.o
                                                  build/FreeRTOS/cmsis_os2.o
errno                                             d:/toolchain/gcc-arm-none-eabi/bin/../lib/gcc/arm-none-eabi/9.2.1/../../../../arm-none-eabi/lib/thumb/v7e-m+fp/hard\libc_nano.a(lib_a-reent.o)
                                                  d:/toolchain/gcc-arm-none-eabi/bin/../lib/gcc/arm-none-eabi/9.2.1/../../../../arm-none-eabi/lib/thumb/v7e-m+fp/hard\libnosys.a(lseek.o)
                                                  d:/toolchain/gcc-arm-none-eabi/bin/../lib/gcc/arm-none-eabi/9.2.1/../../../../arm-none-eabi/lib/thumb/v7e-m+fp/hard\libnosys.a(isatty.o)
                                                  d:/toolchain/gcc-arm-none-eabi/bin/../lib/gcc/arm-none-eabi/9.2.1/../../../../arm-none-eabi/lib/thumb/v7e-m+fp/hard\libnosys.a(fstat.o)
                                                  d:/toolchain/gcc-arm-none-eabi/bin/../lib/gcc/arm-none-eabi/9.2.1/../../../../arm-none-eabi/lib/thumb/v7e-m+fp/hard\libnosys.a(close.o)
                                                  d:/toolchain/gcc-arm-none-eabi/bin/../lib/gcc/arm-none-eabi/9.2.1/../../../../arm-none-eabi/lib/thumb/v7e-m+fp/hard\libc_nano.a(lib_a-readr.o)
                                                  d:/toolchain/gcc-arm-none-eabi/bin/../lib/gcc/arm-none-eabi/9.2.1/../../../../arm-none-eabi/lib/thumb/v7e-m+fp/hard\libc_nano.a(lib_a-lseekr.o)
                                                  d:/toolchain/gcc-arm-none-eabi/bin/../lib/gcc/arm-none-eabi/9.2.1/../../../../arm-none-eabi/lib/thumb/v7e-m+fp/hard\libc_nano.a(lib_a-isattyr.o)
                                                  d:/toolchain/gcc-arm-none-eabi/bin/../lib/gcc/arm-none-eabi/9.2.1/../../../../arm-none-eabi/lib/thumb/v7e-m+fp/hard\libc_nano.a(lib_a-fstatr.o)
                                                  d:/toolchain/gcc-arm-none-eabi/bin/../lib/gcc/arm-none-eabi/9.2.1/../../../../arm-none-eabi/lib/thumb/v7e-m+fp/hard\libc_nano.a(lib_a-closer.o)
                                                  d:/toolchain/gcc-arm-none-eabi/bin/../lib/gcc/arm-none-eabi/9.2.1/../../../../arm-none-eabi/lib/thumb/v7e-m+fp/hard\libc_nano.a(lib_a-writer.o)
                                                  d:/toolchain/gcc-arm-none-eabi/bin/../lib/gcc/arm-none-eabi/9.2.1/../../../../arm-none-eabi/lib/thumb/v7e-m+fp/hard\libc_nano.a(lib_a-sbrkr.o)
exit                                              d:/toolchain/gcc-arm-none-eabi/bin/../lib/gcc/arm-none-eabi/9.2.1/../../../../arm-none-eabi/lib/thumb/v7e-m+fp/hard\libc_nano.a(lib_a-exit.o)
                                                  d:/toolchain/gcc-arm-none-eabi/bin/../lib/gcc/arm-none-eabi/9.2.1/../../../../arm-none-eabi/lib/thumb/v7e-m+fp/hard/crt0.o
fflush                                            d:/toolchain/gcc-arm-none-eabi/bin/../lib/gcc/arm-none-eabi/9.2.1/../../../../arm-none-eabi/lib/thumb/v7e-m+fp/hard\libc_nano.a(lib_a-fflush.o)
                                                  d:/toolchain/gcc-arm-none-eabi/bin/../lib/gcc/arm-none-eabi/9.2.1/../../../../arm-none-eabi/lib/thumb/v7e-m+fp/hard\libc_nano.a(lib_a-refill.o)
fiprintf                                          d:/toolchain/gcc-arm-none-eabi/bin/../lib/gcc/arm-none-eabi/9.2.1/../../../../arm-none-eabi/lib/thumb/v7e-m+fp/hard\libc_nano.a(lib_a-fprintf.o)
                                                  d:/toolchain/gcc-arm-none-eabi/bin/../lib/gcc/arm-none-eabi/9.2.1/../../../../arm-none-eabi/lib/thumb/v7e-m+fp/hard\libc_nano.a(lib_a-nano-mallstatsr.o)
                                                  d:/toolchain/gcc-arm-none-eabi/bin/../lib/gcc/arm-none-eabi/9.2.1/../../../../arm-none-eabi/lib/thumb/v7e-m+fp/hard\libc_nano.a(lib_a-mstats.o)
fprintf                                           d:/toolchain/gcc-arm-none-eabi/bin/../lib/gcc/arm-none-eabi/9.2.1/../../../../arm-none-eabi/lib/thumb/v7e-m+fp/hard\libc_nano.a(lib_a-fprintf.o)
free                                              d:/toolchain/gcc-arm-none-eabi/bin/../lib/gcc/arm-none-eabi/9.2.1/../../../../arm-none-eabi/lib/thumb/v7e-m+fp/hard\libc_nano.a(lib_a-malloc.o)
                                                  build/FreeRTOS/heap_useNewlib.o
g_pfnVectors                                      build/startup_stm32f446xx.o
getc                                              d:/toolchain/gcc-arm-none-eabi/bin/../lib/gcc/arm-none-eabi/9.2.1/../../../../arm-none-eabi/lib/thumb/v7e-m+fp/hard\libc_nano.a(lib_a-getc.o)
getchar                                           d:/toolchain/gcc-arm-none-eabi/bin/../lib/gcc/arm-none-eabi/9.2.1/../../../../arm-none-eabi/lib/thumb/v7e-m+fp/hard\libc_nano.a(lib_a-getchar.o)
                                                  build/cmd_line_buffer.o
hardware_init_hook                                d:/toolchain/gcc-arm-none-eabi/bin/../lib/gcc/arm-none-eabi/9.2.1/../../../../arm-none-eabi/lib/thumb/v7e-m+fp/hard/crt0.o
heartbeat_task_deinit                             build/heartbeat_task.o
heartbeat_task_init                               build/heartbeat_task.o
                                                  build/main.o
heartbeat_task_is_running                         build/heartbeat_task.o
                                                  build/cmd_parser.o
heartbeat_task_start                              build/heartbeat_task.o
                                                  build/cmd_parser.o
heartbeat_task_stop                               build/heartbeat_task.o
                                                  build/cmd_parser.o
iprintf                                           d:/toolchain/gcc-arm-none-eabi/bin/../lib/gcc/arm-none-eabi/9.2.1/../../../../arm-none-eabi/lib/thumb/v7e-m+fp/hard\libc_nano.a(lib_a-printf.o)
led_rgb_deinit                                    build/led_rgb.o
led_rgb_get_blue                                  build/led_rgb.o
led_rgb_get_green                                 build/led_rgb.o
led_rgb_get_red                                   build/led_rgb.o
led_rgb_init                                      build/led_rgb.o
                                                  build/main.o
led_rgb_set_blue                                  build/led_rgb.o
                                                  build/cmd_parser.o
led_rgb_set_green                                 build/led_rgb.o
                                                  build/cmd_parser.o
led_rgb_set_red                                   build/led_rgb.o
                                                  build/cmd_parser.o
light_get_blue                                    build/light.o
                                                  build/cmd_parser.o
light_get_brightness                              build/light.o
                                                  build/cmd_parser.o
light_get_green                                   build/light.o
                                                  build/cmd_parser.o
light_get_hue                                     build/light.o
                                                  build/cmd_parser.o
light_get_red                                     build/light.o
                                                  build/cmd_parser.o
light_get_saturation                              build/light.o
                                                  build/cmd_parser.o
light_incr_hue                                    build/light.o
light_init                                        build/light.o
                                                  build/main.o
light_set_brightness                              build/light.o
                                                  build/cmd_parser.o
light_set_hue                                     build/light.o
                                                  build/cmd_parser.o
light_set_saturation                              build/light.o
                                                  build/cmd_parser.o
localeconv                                        d:/toolchain/gcc-arm-none-eabi/bin/../lib/gcc/arm-none-eabi/9.2.1/../../../../arm-none-eabi/lib/thumb/v7e-m+fp/hard\libc_nano.a(lib_a-localeconv.o)
main                                              build/main.o
                                                  build/startup_stm32f446xx.o
                                                  d:/toolchain/gcc-arm-none-eabi/bin/../lib/gcc/arm-none-eabi/9.2.1/../../../../arm-none-eabi/lib/thumb/v7e-m+fp/hard/crt0.o
mallinfo                                          d:/toolchain/gcc-arm-none-eabi/bin/../lib/gcc/arm-none-eabi/9.2.1/../../../../arm-none-eabi/lib/thumb/v7e-m+fp/hard\libc_nano.a(lib_a-mstats.o)
                                                  build/FreeRTOS/heap_useNewlib.o
malloc                                            d:/toolchain/gcc-arm-none-eabi/bin/../lib/gcc/arm-none-eabi/9.2.1/../../../../arm-none-eabi/lib/thumb/v7e-m+fp/hard\libc_nano.a(lib_a-malloc.o)
                                                  d:/toolchain/gcc-arm-none-eabi/bin/../lib/gcc/arm-none-eabi/9.2.1/../../../../arm-none-eabi/lib/thumb/v7e-m+fp/hard\libc_nano.a(lib_a-mprec.o)
                                                  d:/toolchain/gcc-arm-none-eabi/bin/../lib/gcc/arm-none-eabi/9.2.1/../../../../arm-none-eabi/lib/thumb/v7e-m+fp/hard\libc_nano.a(lib_a-dtoa.o)
                                                  d:/toolchain/gcc-arm-none-eabi/bin/../lib/gcc/arm-none-eabi/9.2.1/../../../../arm-none-eabi/lib/thumb/v7e-m+fp/hard\libc_nano.a(lib_a-setvbuf.o)
                                                  build/FreeRTOS/heap_useNewlib.o
malloc_stats                                      d:/toolchain/gcc-arm-none-eabi/bin/../lib/gcc/arm-none-eabi/9.2.1/../../../../arm-none-eabi/lib/thumb/v7e-m+fp/hard\libc_nano.a(lib_a-mstats.o)
mallopt                                           d:/toolchain/gcc-arm-none-eabi/bin/../lib/gcc/arm-none-eabi/9.2.1/../../../../arm-none-eabi/lib/thumb/v7e-m+fp/hard\libc_nano.a(lib_a-mstats.o)
memchr                                            d:/toolchain/gcc-arm-none-eabi/bin/../lib/gcc/arm-none-eabi/9.2.1/../../../../arm-none-eabi/lib/thumb/v7e-m+fp/hard\libc_nano.a(lib_a-memchr.o)
                                                  d:/toolchain/gcc-arm-none-eabi/bin/../lib/gcc/arm-none-eabi/9.2.1/../../../../arm-none-eabi/lib/thumb/v7e-m+fp/hard\libc_nano.a(lib_a-fvwrite.o)
                                                  d:/toolchain/gcc-arm-none-eabi/bin/../lib/gcc/arm-none-eabi/9.2.1/../../../../arm-none-eabi/lib/thumb/v7e-m+fp/hard\libc_nano.a(lib_a-nano-vfprintf.o)
                                                  d:/toolchain/gcc-arm-none-eabi/bin/../lib/gcc/arm-none-eabi/9.2.1/../../../../arm-none-eabi/lib/thumb/v7e-m+fp/hard\libc_nano.a(lib_a-nano-svfprintf.o)
                                                  d:/toolchain/gcc-arm-none-eabi/bin/../lib/gcc/arm-none-eabi/9.2.1/../../../../arm-none-eabi/lib/thumb/v7e-m+fp/hard\libc_nano.a(lib_a-nano-vfprintf_i.o)
memcpy                                            d:/toolchain/gcc-arm-none-eabi/bin/../lib/gcc/arm-none-eabi/9.2.1/../../../../arm-none-eabi/lib/thumb/v7e-m+fp/hard\libc_nano.a(lib_a-memcpy-stub.o)
                                                  d:/toolchain/gcc-arm-none-eabi/bin/../lib/gcc/arm-none-eabi/9.2.1/../../../../arm-none-eabi/lib/thumb/v7e-m+fp/hard\libc_nano.a(lib_a-nano-reallocr.o)
                                                  d:/toolchain/gcc-arm-none-eabi/bin/../lib/gcc/arm-none-eabi/9.2.1/../../../../arm-none-eabi/lib/thumb/v7e-m+fp/hard\libc_nano.a(lib_a-fvwrite.o)
                                                  d:/toolchain/gcc-arm-none-eabi/bin/../lib/gcc/arm-none-eabi/9.2.1/../../../../arm-none-eabi/lib/thumb/v7e-m+fp/hard\libc_nano.a(lib_a-nano-svfprintf.o)
                                                  d:/toolchain/gcc-arm-none-eabi/bin/../lib/gcc/arm-none-eabi/9.2.1/../../../../arm-none-eabi/lib/thumb/v7e-m+fp/hard\libc_nano.a(lib_a-mprec.o)
                                                  d:/toolchain/gcc-arm-none-eabi/bin/../lib/gcc/arm-none-eabi/9.2.1/../../../../arm-none-eabi/lib/thumb/v7e-m+fp/hard\libc_nano.a(lib_a-gdtoa-gethex.o)
                                                  d:/toolchain/gcc-arm-none-eabi/bin/../lib/gcc/arm-none-eabi/9.2.1/../../../../arm-none-eabi/lib/thumb/v7e-m+fp/hard\libc_nano.a(lib_a-dtoa.o)
                                                  d:/toolchain/gcc-arm-none-eabi/bin/../lib/gcc/arm-none-eabi/9.2.1/../../../../arm-none-eabi/lib/thumb/v7e-m+fp/hard\libc_nano.a(lib_a-strtod.o)
                                                  build/FreeRTOS/cmsis_os2.o
                                                  build/FreeRTOS/stream_buffer.o
                                                  build/FreeRTOS/queue.o
memmove                                           d:/toolchain/gcc-arm-none-eabi/bin/../lib/gcc/arm-none-eabi/9.2.1/../../../../arm-none-eabi/lib/thumb/v7e-m+fp/hard\libc_nano.a(lib_a-memmove.o)
                                                  d:/toolchain/gcc-arm-none-eabi/bin/../lib/gcc/arm-none-eabi/9.2.1/../../../../arm-none-eabi/lib/thumb/v7e-m+fp/hard\libc_nano.a(lib_a-fvwrite.o)
                                                  d:/toolchain/gcc-arm-none-eabi/bin/../lib/gcc/arm-none-eabi/9.2.1/../../../../arm-none-eabi/lib/thumb/v7e-m+fp/hard\libc_nano.a(lib_a-nano-svfprintf.o)
memset                                            d:/toolchain/gcc-arm-none-eabi/bin/../lib/gcc/arm-none-eabi/9.2.1/../../../../arm-none-eabi/lib/thumb/v7e-m+fp/hard\libc_nano.a(lib_a-memset.o)
                                                  d:/toolchain/gcc-arm-none-eabi/bin/../lib/gcc/arm-none-eabi/9.2.1/../../../../arm-none-eabi/lib/thumb/v7e-m+fp/hard\libc_nano.a(lib_a-nano-callocr.o)
                                                  d:/toolchain/gcc-arm-none-eabi/bin/../lib/gcc/arm-none-eabi/9.2.1/../../../../arm-none-eabi/lib/thumb/v7e-m+fp/hard\libc_nano.a(lib_a-findfp.o)
                                                  build/FreeRTOS/stream_buffer.o
                                                  build/FreeRTOS/tasks.o
                                                  d:/toolchain/gcc-arm-none-eabi/bin/../lib/gcc/arm-none-eabi/9.2.1/../../../../arm-none-eabi/lib/thumb/v7e-m+fp/hard/crt0.o
mstats                                            d:/toolchain/gcc-arm-none-eabi/bin/../lib/gcc/arm-none-eabi/9.2.1/../../../../arm-none-eabi/lib/thumb/v7e-m+fp/hard\libc_nano.a(lib_a-mstats.o)
nan                                               d:/toolchain/gcc-arm-none-eabi/bin/../lib/gcc/arm-none-eabi/9.2.1/../../../../arm-none-eabi/lib/thumb/v7e-m+fp/hard\libc_nano.a(lib_a-s_nan.o)
                                                  d:/toolchain/gcc-arm-none-eabi/bin/../lib/gcc/arm-none-eabi/9.2.1/../../../../arm-none-eabi/lib/thumb/v7e-m+fp/hard\libc_nano.a(lib_a-strtod.o)
nanf                                              d:/toolchain/gcc-arm-none-eabi/bin/../lib/gcc/arm-none-eabi/9.2.1/../../../../arm-none-eabi/lib/thumb/v7e-m+fp/hard\libc_nano.a(lib_a-sf_nan.o)
                                                  d:/toolchain/gcc-arm-none-eabi/bin/../lib/gcc/arm-none-eabi/9.2.1/../../../../arm-none-eabi/lib/thumb/v7e-m+fp/hard\libc_nano.a(lib_a-strtod.o)
                                                  d:/toolchain/gcc-arm-none-eabi/bin/../lib/gcc/arm-none-eabi/9.2.1/../../../../arm-none-eabi/lib/thumb/v7e-m+fp/hard\libc_nano.a(lib_a-nano-vfscanf_float.o)
osDelay                                           build/FreeRTOS/cmsis_os2.o
osDelayUntil                                      build/FreeRTOS/cmsis_os2.o
osEventFlagsClear                                 build/FreeRTOS/cmsis_os2.o
osEventFlagsDelete                                build/FreeRTOS/cmsis_os2.o
osEventFlagsGet                                   build/FreeRTOS/cmsis_os2.o
osEventFlagsNew                                   build/FreeRTOS/cmsis_os2.o
osEventFlagsSet                                   build/FreeRTOS/cmsis_os2.o
osEventFlagsWait                                  build/FreeRTOS/cmsis_os2.o
osKernelGetInfo                                   build/FreeRTOS/cmsis_os2.o
osKernelGetState                                  build/FreeRTOS/cmsis_os2.o
osKernelGetSysTimerCount                          build/FreeRTOS/cmsis_os2.o
osKernelGetSysTimerFreq                           build/FreeRTOS/cmsis_os2.o
osKernelGetTickCount                              build/FreeRTOS/cmsis_os2.o
osKernelGetTickFreq                               build/FreeRTOS/cmsis_os2.o
osKernelInitialize                                build/FreeRTOS/cmsis_os2.o
                                                  build/FreeRTOS/clib_arm.o
                                                  build/main.o
osKernelLock                                      build/FreeRTOS/cmsis_os2.o
osKernelRestoreLock                               build/FreeRTOS/cmsis_os2.o
osKernelStart                                     build/FreeRTOS/cmsis_os2.o
                                                  build/main.o
osKernelUnlock                                    build/FreeRTOS/cmsis_os2.o
osMessageQueueDelete                              build/FreeRTOS/cmsis_os2.o
osMessageQueueGet                                 build/FreeRTOS/cmsis_os2.o
                                                  build/uart.o
osMessageQueueGetCapacity                         build/FreeRTOS/cmsis_os2.o
osMessageQueueGetCount                            build/FreeRTOS/cmsis_os2.o
osMessageQueueGetMsgSize                          build/FreeRTOS/cmsis_os2.o
osMessageQueueGetSpace                            build/FreeRTOS/cmsis_os2.o
osMessageQueueNew                                 build/FreeRTOS/cmsis_os2.o
                                                  build/uart.o
osMessageQueuePut                                 build/FreeRTOS/cmsis_os2.o
                                                  build/uart.o
osMessageQueueReset                               build/FreeRTOS/cmsis_os2.o
osMutexAcquire                                    build/FreeRTOS/cmsis_os2.o
                                                  build/uart.o
osMutexDelete                                     build/FreeRTOS/cmsis_os2.o
osMutexGetOwner                                   build/FreeRTOS/cmsis_os2.o
osMutexNew                                        build/FreeRTOS/cmsis_os2.o
                                                  build/uart.o
osMutexRelease                                    build/FreeRTOS/cmsis_os2.o
                                                  build/uart.o
osSemaphoreAcquire                                build/FreeRTOS/cmsis_os2.o
osSemaphoreDelete                                 build/FreeRTOS/cmsis_os2.o
osSemaphoreGetCount                               build/FreeRTOS/cmsis_os2.o
osSemaphoreNew                                    build/FreeRTOS/cmsis_os2.o
osSemaphoreRelease                                build/FreeRTOS/cmsis_os2.o
osThreadEnumerate                                 build/FreeRTOS/cmsis_os2.o
osThreadExit                                      build/FreeRTOS/cmsis_os2.o
osThreadFlagsClear                                build/FreeRTOS/cmsis_os2.o
osThreadFlagsGet                                  build/FreeRTOS/cmsis_os2.o
osThreadFlagsSet                                  build/FreeRTOS/cmsis_os2.o
osThreadFlagsWait                                 build/FreeRTOS/cmsis_os2.o
osThreadGetCount                                  build/FreeRTOS/cmsis_os2.o
osThreadGetId                                     build/FreeRTOS/cmsis_os2.o
osThreadGetName                                   build/FreeRTOS/cmsis_os2.o
osThreadGetPriority                               build/FreeRTOS/cmsis_os2.o
osThreadGetStackSpace                             build/FreeRTOS/cmsis_os2.o
osThreadGetState                                  build/FreeRTOS/cmsis_os2.o
osThreadNew                                       build/FreeRTOS/cmsis_os2.o
                                                  build/cmd_task.o
osThreadResume                                    build/FreeRTOS/cmsis_os2.o
osThreadSetPriority                               build/FreeRTOS/cmsis_os2.o
osThreadSuspend                                   build/FreeRTOS/cmsis_os2.o
osThreadTerminate                                 build/FreeRTOS/cmsis_os2.o
osThreadYield                                     build/FreeRTOS/cmsis_os2.o
osTimerDelete                                     build/FreeRTOS/cmsis_os2.o
osTimerGetName                                    build/FreeRTOS/cmsis_os2.o
osTimerIsRunning                                  build/FreeRTOS/cmsis_os2.o
osTimerNew                                        build/FreeRTOS/cmsis_os2.o
                                                  build/heartbeat_task.o
osTimerStart                                      build/FreeRTOS/cmsis_os2.o
                                                  build/heartbeat_task.o
osTimerStop                                       build/FreeRTOS/cmsis_os2.o
                                                  build/heartbeat_task.o
pcTaskGetName                                     build/FreeRTOS/tasks.o
                                                  build/FreeRTOS/cmsis_os2.o
pcTimerGetName                                    build/FreeRTOS/timers.o
                                                  build/FreeRTOS/cmsis_os2.o
pot_deinit                                        build/potentiometer.o
pot_get_value                                     build/potentiometer.o
                                                  build/cmd_parser.o
pot_init                                          build/potentiometer.o
                                                  build/main.o
printf                                            d:/toolchain/gcc-arm-none-eabi/bin/../lib/gcc/arm-none-eabi/9.2.1/../../../../arm-none-eabi/lib/thumb/v7e-m+fp/hard\libc_nano.a(lib_a-printf.o)
                                                  build/cmd_task.o
                                                  build/uart.o
                                                  build/cmd_parser.o
                                                  build/cmd_line_buffer.o
pvPortMalloc                                      build/FreeRTOS/heap_useNewlib.o
                                                  build/FreeRTOS/cmsis_os2.o
                                                  build/FreeRTOS/stream_buffer.o
                                                  build/FreeRTOS/timers.o
                                                  build/FreeRTOS/tasks.o
                                                  build/FreeRTOS/queue.o
                                                  build/FreeRTOS/event_groups.o
pvTaskIncrementMutexHeldCount                     build/FreeRTOS/tasks.o
                                                  build/FreeRTOS/queue.o
pvTimerGetTimerID                                 build/FreeRTOS/timers.o
                                                  build/FreeRTOS/cmsis_os2.o
pxCurrentTCB                                      build/FreeRTOS/tasks.o
                                                  build/FreeRTOS/port.o
pxPortInitialiseStack                             build/FreeRTOS/port.o
                                                  build/FreeRTOS/tasks.o
sbrk                                              build/FreeRTOS/heap_useNewlib.o
setlocale                                         d:/toolchain/gcc-arm-none-eabi/bin/../lib/gcc/arm-none-eabi/9.2.1/../../../../arm-none-eabi/lib/thumb/v7e-m+fp/hard\libc_nano.a(lib_a-locale.o)
setvbuf                                           d:/toolchain/gcc-arm-none-eabi/bin/../lib/gcc/arm-none-eabi/9.2.1/../../../../arm-none-eabi/lib/thumb/v7e-m+fp/hard\libc_nano.a(lib_a-setvbuf.o)
                                                  build/uart.o
siprintf                                          d:/toolchain/gcc-arm-none-eabi/bin/../lib/gcc/arm-none-eabi/9.2.1/../../../../arm-none-eabi/lib/thumb/v7e-m+fp/hard\libc_nano.a(lib_a-sprintf.o)
software_init_hook                                build/FreeRTOS/clib_arm.o
                                                  d:/toolchain/gcc-arm-none-eabi/bin/../lib/gcc/arm-none-eabi/9.2.1/../../../../arm-none-eabi/lib/thumb/v7e-m+fp/hard/crt0.o
sprintf                                           d:/toolchain/gcc-arm-none-eabi/bin/../lib/gcc/arm-none-eabi/9.2.1/../../../../arm-none-eabi/lib/thumb/v7e-m+fp/hard\libc_nano.a(lib_a-sprintf.o)
                                                  d:/toolchain/gcc-arm-none-eabi/bin/../lib/gcc/arm-none-eabi/9.2.1/../../../../arm-none-eabi/lib/thumb/v7e-m+fp/hard\libc_nano.a(lib_a-nano-vfscanf_float.o)
strcmp                                            d:/toolchain/gcc-arm-none-eabi/bin/../lib/gcc/arm-none-eabi/9.2.1/../../../../arm-none-eabi/lib/thumb/v7e-m+fp/hard\libc_nano.a(lib_a-strcmp.o)
                                                  d:/toolchain/gcc-arm-none-eabi/bin/../lib/gcc/arm-none-eabi/9.2.1/../../../../arm-none-eabi/lib/thumb/v7e-m+fp/hard\libc_nano.a(lib_a-locale.o)
                                                  build/cmd_parser.o
strlen                                            d:/toolchain/gcc-arm-none-eabi/bin/../lib/gcc/arm-none-eabi/9.2.1/../../../../arm-none-eabi/lib/thumb/v7e-m+fp/hard\libc_nano.a(lib_a-strlen.o)
                                                  d:/toolchain/gcc-arm-none-eabi/bin/../lib/gcc/arm-none-eabi/9.2.1/../../../../arm-none-eabi/lib/thumb/v7e-m+fp/hard\libc_nano.a(lib_a-gdtoa-gethex.o)
                                                  d:/toolchain/gcc-arm-none-eabi/bin/../lib/gcc/arm-none-eabi/9.2.1/../../../../arm-none-eabi/lib/thumb/v7e-m+fp/hard\libc_nano.a(lib_a-strtod.o)
                                                  d:/toolchain/gcc-arm-none-eabi/bin/../lib/gcc/arm-none-eabi/9.2.1/../../../../arm-none-eabi/lib/thumb/v7e-m+fp/hard\libc_nano.a(lib_a-nano-vfprintf_float.o)
strncmp                                           d:/toolchain/gcc-arm-none-eabi/bin/../lib/gcc/arm-none-eabi/9.2.1/../../../../arm-none-eabi/lib/thumb/v7e-m+fp/hard\libc_nano.a(lib_a-strncmp.o)
                                                  d:/toolchain/gcc-arm-none-eabi/bin/../lib/gcc/arm-none-eabi/9.2.1/../../../../arm-none-eabi/lib/thumb/v7e-m+fp/hard\libc_nano.a(lib_a-gdtoa-gethex.o)
                                                  d:/toolchain/gcc-arm-none-eabi/bin/../lib/gcc/arm-none-eabi/9.2.1/../../../../arm-none-eabi/lib/thumb/v7e-m+fp/hard\libc_nano.a(lib_a-strtod.o)
strtod                                            d:/toolchain/gcc-arm-none-eabi/bin/../lib/gcc/arm-none-eabi/9.2.1/../../../../arm-none-eabi/lib/thumb/v7e-m+fp/hard\libc_nano.a(lib_a-strtod.o)
strtod_l                                          d:/toolchain/gcc-arm-none-eabi/bin/../lib/gcc/arm-none-eabi/9.2.1/../../../../arm-none-eabi/lib/thumb/v7e-m+fp/hard\libc_nano.a(lib_a-strtod.o)
strtof                                            d:/toolchain/gcc-arm-none-eabi/bin/../lib/gcc/arm-none-eabi/9.2.1/../../../../arm-none-eabi/lib/thumb/v7e-m+fp/hard\libc_nano.a(lib_a-strtod.o)
strtof_l                                          d:/toolchain/gcc-arm-none-eabi/bin/../lib/gcc/arm-none-eabi/9.2.1/../../../../arm-none-eabi/lib/thumb/v7e-m+fp/hard\libc_nano.a(lib_a-strtod.o)
strtol                                            d:/toolchain/gcc-arm-none-eabi/bin/../lib/gcc/arm-none-eabi/9.2.1/../../../../arm-none-eabi/lib/thumb/v7e-m+fp/hard\libc_nano.a(lib_a-strtol.o)
                                                  d:/toolchain/gcc-arm-none-eabi/bin/../lib/gcc/arm-none-eabi/9.2.1/../../../../arm-none-eabi/lib/thumb/v7e-m+fp/hard\libc_nano.a(lib_a-atoi.o)
strtol_l                                          d:/toolchain/gcc-arm-none-eabi/bin/../lib/gcc/arm-none-eabi/9.2.1/../../../../arm-none-eabi/lib/thumb/v7e-m+fp/hard\libc_nano.a(lib_a-strtol.o)
uart_init                                         build/uart.o
                                                  build/main.o
ucQueueGetQueueType                               build/FreeRTOS/queue.o
ucStreamBufferGetStreamBufferType                 build/FreeRTOS/stream_buffer.o
ulTaskNotifyTake                                  build/FreeRTOS/tasks.o
uwTick                                            build/stm32f4_HAL/stm32f4xx_hal.o
uwTickFreq                                        build/stm32f4_HAL/stm32f4xx_hal.o
uwTickPrio                                        build/stm32f4_HAL/stm32f4xx_hal.o
                                                  build/stm32f4_HAL/stm32f4xx_hal_rcc_ex.o
                                                  build/stm32f4_HAL/stm32f4xx_hal_rcc.o
uxEventGroupGetNumber                             build/FreeRTOS/event_groups.o
uxListRemove                                      build/FreeRTOS/list.o
                                                  build/FreeRTOS/timers.o
                                                  build/FreeRTOS/tasks.o
uxQueueGetQueueNumber                             build/FreeRTOS/queue.o
uxQueueMessagesWaiting                            build/FreeRTOS/queue.o
                                                  build/FreeRTOS/cmsis_os2.o
uxQueueMessagesWaitingFromISR                     build/FreeRTOS/queue.o
                                                  build/FreeRTOS/cmsis_os2.o
uxQueueSpacesAvailable                            build/FreeRTOS/queue.o
                                                  build/FreeRTOS/cmsis_os2.o
uxStreamBufferGetStreamBufferNumber               build/FreeRTOS/stream_buffer.o
uxTaskGetNumberOfTasks                            build/FreeRTOS/tasks.o
                                                  build/FreeRTOS/cmsis_os2.o
uxTaskGetStackHighWaterMark                       build/FreeRTOS/tasks.o
                                                  build/FreeRTOS/cmsis_os2.o
uxTaskGetSystemState                              build/FreeRTOS/tasks.o
                                                  build/FreeRTOS/cmsis_os2.o
uxTaskGetTaskNumber                               build/FreeRTOS/tasks.o
uxTaskPriorityGet                                 build/FreeRTOS/tasks.o
                                                  build/FreeRTOS/cmsis_os2.o
uxTaskPriorityGetFromISR                          build/FreeRTOS/tasks.o
uxTaskResetEventItemValue                         build/FreeRTOS/tasks.o
                                                  build/FreeRTOS/event_groups.o
uxTimerGetTimerNumber                             build/FreeRTOS/timers.o
vApplicationGetIdleTaskMemory                     build/FreeRTOS/cmsis_os2.o
                                                  build/FreeRTOS/tasks.o
vApplicationGetTimerTaskMemory                    build/FreeRTOS/cmsis_os2.o
                                                  build/FreeRTOS/timers.o
vEventGroupClearBitsCallback                      build/FreeRTOS/event_groups.o
vEventGroupDelete                                 build/FreeRTOS/event_groups.o
                                                  build/FreeRTOS/cmsis_os2.o
vEventGroupSetBitsCallback                        build/FreeRTOS/event_groups.o
vEventGroupSetNumber                              build/FreeRTOS/event_groups.o
vListInitialise                                   build/FreeRTOS/list.o
                                                  build/FreeRTOS/timers.o
                                                  build/FreeRTOS/tasks.o
                                                  build/FreeRTOS/queue.o
                                                  build/FreeRTOS/event_groups.o
vListInitialiseItem                               build/FreeRTOS/list.o
                                                  build/FreeRTOS/timers.o
                                                  build/FreeRTOS/tasks.o
vListInsert                                       build/FreeRTOS/list.o
                                                  build/FreeRTOS/timers.o
                                                  build/FreeRTOS/tasks.o
vListInsertEnd                                    build/FreeRTOS/list.o
                                                  build/FreeRTOS/tasks.o
vPortEndScheduler                                 build/FreeRTOS/port.o
                                                  build/FreeRTOS/tasks.o
vPortEnterCritical                                build/FreeRTOS/port.o
                                                  build/FreeRTOS/stream_buffer.o
                                                  build/FreeRTOS/timers.o
                                                  build/FreeRTOS/tasks.o
                                                  build/FreeRTOS/queue.o
                                                  build/FreeRTOS/event_groups.o
vPortExitCritical                                 build/FreeRTOS/port.o
                                                  build/FreeRTOS/stream_buffer.o
                                                  build/FreeRTOS/timers.o
                                                  build/FreeRTOS/tasks.o
                                                  build/FreeRTOS/queue.o
                                                  build/FreeRTOS/event_groups.o
vPortFree                                         build/FreeRTOS/heap_useNewlib.o
                                                  build/FreeRTOS/cmsis_os2.o
                                                  build/FreeRTOS/stream_buffer.o
                                                  build/FreeRTOS/timers.o
                                                  build/FreeRTOS/tasks.o
                                                  build/FreeRTOS/queue.o
                                                  build/FreeRTOS/event_groups.o
vPortInitialiseBlocks                             build/FreeRTOS/heap_useNewlib.o
vPortSetupTimerInterrupt                          build/FreeRTOS/port.o
vQueueDelete                                      build/FreeRTOS/queue.o
                                                  build/FreeRTOS/cmsis_os2.o
vQueueSetQueueNumber                              build/FreeRTOS/queue.o
vQueueWaitForMessageRestricted                    build/FreeRTOS/queue.o
                                                  build/FreeRTOS/timers.o
vStreamBufferDelete                               build/FreeRTOS/stream_buffer.o
vStreamBufferSetStreamBufferNumber                build/FreeRTOS/stream_buffer.o
vTaskDelay                                        build/FreeRTOS/tasks.o
                                                  build/FreeRTOS/cmsis_os2.o
vTaskDelayUntil                                   build/FreeRTOS/tasks.o
                                                  build/FreeRTOS/cmsis_os2.o
vTaskDelete                                       build/FreeRTOS/tasks.o
                                                  build/FreeRTOS/cmsis_os2.o
vTaskEndScheduler                                 build/FreeRTOS/tasks.o
vTaskGetInfo                                      build/FreeRTOS/tasks.o
vTaskInternalSetTimeOutState                      build/FreeRTOS/tasks.o
                                                  build/FreeRTOS/queue.o
vTaskMissedYield                                  build/FreeRTOS/tasks.o
                                                  build/FreeRTOS/queue.o
vTaskNotifyGiveFromISR                            build/FreeRTOS/tasks.o
vTaskPlaceOnEventList                             build/FreeRTOS/tasks.o
                                                  build/FreeRTOS/queue.o
vTaskPlaceOnEventListRestricted                   build/FreeRTOS/tasks.o
                                                  build/FreeRTOS/queue.o
vTaskPlaceOnUnorderedEventList                    build/FreeRTOS/tasks.o
                                                  build/FreeRTOS/event_groups.o
vTaskPriorityDisinheritAfterTimeout               build/FreeRTOS/tasks.o
                                                  build/FreeRTOS/queue.o
vTaskPrioritySet                                  build/FreeRTOS/tasks.o
                                                  build/FreeRTOS/cmsis_os2.o
vTaskRemoveFromUnorderedEventList                 build/FreeRTOS/tasks.o
                                                  build/FreeRTOS/event_groups.o
vTaskResume                                       build/FreeRTOS/tasks.o
                                                  build/FreeRTOS/cmsis_os2.o
vTaskSetTaskNumber                                build/FreeRTOS/tasks.o
vTaskSetTimeOutState                              build/FreeRTOS/tasks.o
                                                  build/FreeRTOS/stream_buffer.o
vTaskStartScheduler                               build/FreeRTOS/tasks.o
                                                  build/FreeRTOS/cmsis_os2.o
vTaskSuspend                                      build/FreeRTOS/tasks.o
                                                  build/FreeRTOS/cmsis_os2.o
vTaskSuspendAll                                   build/FreeRTOS/tasks.o
                                                  build/FreeRTOS/heap_useNewlib.o
                                                  build/FreeRTOS/cmsis_os2.o
                                                  build/FreeRTOS/stream_buffer.o
                                                  build/FreeRTOS/timers.o
                                                  build/FreeRTOS/queue.o
                                                  build/FreeRTOS/event_groups.o
vTaskSwitchContext                                build/FreeRTOS/tasks.o
                                                  build/FreeRTOS/port.o
vTimerSetTimerID                                  build/FreeRTOS/timers.o
vTimerSetTimerNumber                              build/FreeRTOS/timers.o
vfiprintf                                         d:/toolchain/gcc-arm-none-eabi/bin/../lib/gcc/arm-none-eabi/9.2.1/../../../../arm-none-eabi/lib/thumb/v7e-m+fp/hard\libc_nano.a(lib_a-nano-vfprintf.o)
vfprintf                                          d:/toolchain/gcc-arm-none-eabi/bin/../lib/gcc/arm-none-eabi/9.2.1/../../../../arm-none-eabi/lib/thumb/v7e-m+fp/hard\libc_nano.a(lib_a-nano-vfprintf.o)
viprintf                                          d:/toolchain/gcc-arm-none-eabi/bin/../lib/gcc/arm-none-eabi/9.2.1/../../../../arm-none-eabi/lib/thumb/v7e-m+fp/hard\libc_nano.a(lib_a-vprintf.o)
vprintf                                           d:/toolchain/gcc-arm-none-eabi/bin/../lib/gcc/arm-none-eabi/9.2.1/../../../../arm-none-eabi/lib/thumb/v7e-m+fp/hard\libc_nano.a(lib_a-vprintf.o)
                                                  build/uart.o
xEventGroupClearBits                              build/FreeRTOS/event_groups.o
                                                  build/FreeRTOS/cmsis_os2.o
xEventGroupClearBitsFromISR                       build/FreeRTOS/event_groups.o
                                                  build/FreeRTOS/cmsis_os2.o
xEventGroupCreate                                 build/FreeRTOS/event_groups.o
                                                  build/FreeRTOS/cmsis_os2.o
xEventGroupCreateStatic                           build/FreeRTOS/event_groups.o
                                                  build/FreeRTOS/cmsis_os2.o
xEventGroupGetBitsFromISR                         build/FreeRTOS/event_groups.o
                                                  build/FreeRTOS/cmsis_os2.o
xEventGroupSetBits                                build/FreeRTOS/event_groups.o
                                                  build/FreeRTOS/cmsis_os2.o
xEventGroupSetBitsFromISR                         build/FreeRTOS/event_groups.o
                                                  build/FreeRTOS/cmsis_os2.o
xEventGroupSync                                   build/FreeRTOS/event_groups.o
xEventGroupWaitBits                               build/FreeRTOS/event_groups.o
                                                  build/FreeRTOS/cmsis_os2.o
xPortGetFreeHeapSize                              build/FreeRTOS/heap_useNewlib.o
xPortStartScheduler                               build/FreeRTOS/port.o
                                                  build/FreeRTOS/tasks.o
xPortSysTickHandler                               build/FreeRTOS/port.o
                                                  build/FreeRTOS/cmsis_os2.o
xQueueCreateCountingSemaphore                     build/FreeRTOS/queue.o
                                                  build/FreeRTOS/cmsis_os2.o
xQueueCreateCountingSemaphoreStatic               build/FreeRTOS/queue.o
                                                  build/FreeRTOS/cmsis_os2.o
xQueueCreateMutex                                 build/FreeRTOS/queue.o
                                                  build/FreeRTOS/cmsis_os2.o
xQueueCreateMutexStatic                           build/FreeRTOS/queue.o
                                                  build/FreeRTOS/cmsis_os2.o
xQueueGenericCreate                               build/FreeRTOS/queue.o
                                                  build/FreeRTOS/cmsis_os2.o
xQueueGenericCreateStatic                         build/FreeRTOS/queue.o
                                                  build/FreeRTOS/cmsis_os2.o
                                                  build/FreeRTOS/timers.o
xQueueGenericReset                                build/FreeRTOS/queue.o
                                                  build/FreeRTOS/cmsis_os2.o
xQueueGenericSend                                 build/FreeRTOS/queue.o
                                                  build/FreeRTOS/cmsis_os2.o
                                                  build/FreeRTOS/timers.o
xQueueGenericSendFromISR                          build/FreeRTOS/queue.o
                                                  build/FreeRTOS/cmsis_os2.o
                                                  build/FreeRTOS/timers.o
xQueueGetMutexHolder                              build/FreeRTOS/queue.o
                                                  build/FreeRTOS/cmsis_os2.o
xQueueGetMutexHolderFromISR                       build/FreeRTOS/queue.o
xQueueGiveFromISR                                 build/FreeRTOS/queue.o
                                                  build/FreeRTOS/cmsis_os2.o
xQueueGiveMutexRecursive                          build/FreeRTOS/queue.o
                                                  build/FreeRTOS/cmsis_os2.o
xQueueIsQueueEmptyFromISR                         build/FreeRTOS/queue.o
xQueueIsQueueFullFromISR                          build/FreeRTOS/queue.o
xQueuePeek                                        build/FreeRTOS/queue.o
xQueuePeekFromISR                                 build/FreeRTOS/queue.o
xQueueReceive                                     build/FreeRTOS/queue.o
                                                  build/FreeRTOS/cmsis_os2.o
                                                  build/FreeRTOS/timers.o
xQueueReceiveFromISR                              build/FreeRTOS/queue.o
                                                  build/FreeRTOS/cmsis_os2.o
xQueueSemaphoreTake                               build/FreeRTOS/queue.o
                                                  build/FreeRTOS/cmsis_os2.o
xQueueTakeMutexRecursive                          build/FreeRTOS/queue.o
                                                  build/FreeRTOS/cmsis_os2.o
xStreamBufferBytesAvailable                       build/FreeRTOS/stream_buffer.o
xStreamBufferGenericCreate                        build/FreeRTOS/stream_buffer.o
xStreamBufferGenericCreateStatic                  build/FreeRTOS/stream_buffer.o
xStreamBufferIsEmpty                              build/FreeRTOS/stream_buffer.o
xStreamBufferIsFull                               build/FreeRTOS/stream_buffer.o
xStreamBufferReceive                              build/FreeRTOS/stream_buffer.o
xStreamBufferReceiveCompletedFromISR              build/FreeRTOS/stream_buffer.o
xStreamBufferReceiveFromISR                       build/FreeRTOS/stream_buffer.o
xStreamBufferReset                                build/FreeRTOS/stream_buffer.o
xStreamBufferSend                                 build/FreeRTOS/stream_buffer.o
xStreamBufferSendCompletedFromISR                 build/FreeRTOS/stream_buffer.o
xStreamBufferSendFromISR                          build/FreeRTOS/stream_buffer.o
xStreamBufferSetTriggerLevel                      build/FreeRTOS/stream_buffer.o
xStreamBufferSpacesAvailable                      build/FreeRTOS/stream_buffer.o
xTaskCheckForTimeOut                              build/FreeRTOS/tasks.o
                                                  build/FreeRTOS/stream_buffer.o
                                                  build/FreeRTOS/queue.o
xTaskCreate                                       build/FreeRTOS/tasks.o
                                                  build/FreeRTOS/cmsis_os2.o
xTaskCreateStatic                                 build/FreeRTOS/tasks.o
                                                  build/FreeRTOS/cmsis_os2.o
                                                  build/FreeRTOS/timers.o
xTaskGenericNotify                                build/FreeRTOS/tasks.o
                                                  build/FreeRTOS/cmsis_os2.o
                                                  build/FreeRTOS/stream_buffer.o
xTaskGenericNotifyFromISR                         build/FreeRTOS/tasks.o
                                                  build/FreeRTOS/cmsis_os2.o
                                                  build/FreeRTOS/stream_buffer.o
xTaskGetCurrentTaskHandle                         build/FreeRTOS/tasks.o
                                                  build/FreeRTOS/cmsis_os2.o
                                                  build/FreeRTOS/stream_buffer.o
                                                  build/FreeRTOS/queue.o
xTaskGetSchedulerState                            build/FreeRTOS/tasks.o
                                                  build/FreeRTOS/cmsis_os2.o
                                                  build/FreeRTOS/timers.o
xTaskGetTickCount                                 build/FreeRTOS/tasks.o
                                                  build/FreeRTOS/cmsis_os2.o
                                                  build/FreeRTOS/timers.o
xTaskGetTickCountFromISR                          build/FreeRTOS/tasks.o
                                                  build/FreeRTOS/cmsis_os2.o
xTaskIncrementTick                                build/FreeRTOS/tasks.o
                                                  build/FreeRTOS/port.o
xTaskNotifyStateClear                             build/FreeRTOS/tasks.o
                                                  build/FreeRTOS/stream_buffer.o
xTaskNotifyWait                                   build/FreeRTOS/tasks.o
                                                  build/FreeRTOS/cmsis_os2.o
                                                  build/FreeRTOS/stream_buffer.o
xTaskPriorityDisinherit                           build/FreeRTOS/tasks.o
                                                  build/FreeRTOS/queue.o
xTaskPriorityInherit                              build/FreeRTOS/tasks.o
                                                  build/FreeRTOS/queue.o
xTaskRemoveFromEventList                          build/FreeRTOS/tasks.o
                                                  build/FreeRTOS/queue.o
xTaskResumeAll                                    build/FreeRTOS/tasks.o
                                                  build/FreeRTOS/heap_useNewlib.o
                                                  build/FreeRTOS/cmsis_os2.o
                                                  build/FreeRTOS/stream_buffer.o
                                                  build/FreeRTOS/timers.o
                                                  build/FreeRTOS/queue.o
                                                  build/FreeRTOS/event_groups.o
xTaskResumeFromISR                                build/FreeRTOS/tasks.o
xTimerCreate                                      build/FreeRTOS/timers.o
                                                  build/FreeRTOS/cmsis_os2.o
xTimerCreateStatic                                build/FreeRTOS/timers.o
                                                  build/FreeRTOS/cmsis_os2.o
xTimerCreateTimerTask                             build/FreeRTOS/timers.o
                                                  build/FreeRTOS/tasks.o
xTimerGenericCommand                              build/FreeRTOS/timers.o
                                                  build/FreeRTOS/cmsis_os2.o
xTimerGetExpiryTime                               build/FreeRTOS/timers.o
xTimerGetPeriod                                   build/FreeRTOS/timers.o
xTimerGetTimerDaemonTaskHandle                    build/FreeRTOS/timers.o
xTimerIsTimerActive                               build/FreeRTOS/timers.o
                                                  build/FreeRTOS/cmsis_os2.o
xTimerPendFunctionCall                            build/FreeRTOS/timers.o
xTimerPendFunctionCallFromISR                     build/FreeRTOS/timers.o
                                                  build/FreeRTOS/event_groups.o
